(iutilities
Vocab
p0
(dp1
S'index2word'
p2
(lp3
S'**UNKNOWN**'
p4
aS'aer'
p5
aS'banknote'
p6
aS'berlitz'
p7
aS'calloway'
p8
aS'centrust'
p9
aS'cluett'
p10
aS'fromstein'
p11
aS'gitano'
p12
aS'guterman'
p13
aS'hydro-quebec'
p14
aS'ipo'
p15
aS'kia'
p16
aS'memotec'
p17
aS'mlx'
p18
aS'nahb'
p19
aS'punts'
p20
aS'rake'
p21
aS'regatta'
p22
aS'rubens'
p23
aS'sim'
p24
aS'snack-food'
p25
aS'ssangyong'
p26
aS'swapo'
p27
aS'wachter'
p28
aS'.'
p29
aS'pierre'
p30
aS'<unk>'
p31
aS'N'
p32
aS'years'
p33
aS'old'
p34
aS'will'
p35
aS'join'
p36
aS'the'
p37
aS'board'
p38
aS'as'
p39
aS'a'
p40
aS'nonexecutive'
p41
aS'director'
p42
aS'nov.'
p43
aS'mr.'
p44
aS'is'
p45
aS'chairman'
p46
aS'of'
p47
aS'n.v.'
p48
aS'dutch'
p49
aS'publishing'
p50
aS'group'
p51
aS'rudolph'
p52
aS'and'
p53
aS'former'
p54
aS'consolidated'
p55
aS'gold'
p56
aS'fields'
p57
aS'plc'
p58
aS'was'
p59
aS'named'
p60
aS'this'
p61
aS'british'
p62
aS'industrial'
p63
aS'conglomerate'
p64
aS'form'
p65
aS'asbestos'
p66
aS'once'
p67
aS'used'
p68
aS'to'
p69
aS'make'
p70
aS'kent'
p71
aS'cigarette'
p72
aS'filters'
p73
aS'has'
p74
aS'caused'
p75
aS'high'
p76
aS'percentage'
p77
aS'cancer'
p78
aS'deaths'
p79
aS'among'
p80
aS'workers'
p81
aS'exposed'
p82
aS'it'
p83
aS'more'
p84
aS'than'
p85
aS'ago'
p86
aS'researchers'
p87
aS'reported'
p88
aS'fiber'
p89
aS'unusually'
p90
aS'enters'
p91
aS'with'
p92
aS'even'
p93
aS'brief'
p94
aS'exposures'
p95
aS'causing'
p96
aS'symptoms'
p97
aS'that'
p98
aS'show'
p99
aS'up'
p100
aS'decades'
p101
aS'later'
p102
aS'said'
p103
aS'inc.'
p104
aS'unit'
p105
aS'new'
p106
aS'york-based'
p107
aS'corp.'
p108
aS'makes'
p109
aS'cigarettes'
p110
aS'stopped'
p111
aS'using'
p112
aS'in'
p113
aS'its'
p114
aS'although'
p115
aS'preliminary'
p116
aS'findings'
p117
aS'were'
p118
aS'year'
p119
aS'latest'
p120
aS'results'
p121
aS'appear'
p122
aS'today'
p123
aS"'s"
p124
aS'england'
p125
aS'journal'
p126
aS'medicine'
p127
aS'forum'
p128
aS'likely'
p129
aS'bring'
p130
aS'attention'
p131
aS'problem'
p132
aS'an'
p133
aS'story'
p134
aS'we'
p135
aS"'re"
p136
aS'talking'
p137
aS'about'
p138
aS'before'
p139
aS'anyone'
p140
aS'heard'
p141
aS'having'
p142
aS'any'
p143
aS'questionable'
p144
aS'properties'
p145
aS'there'
p146
aS'no'
p147
aS'our'
p148
aS'products'
p149
aS'now'
p150
aS'neither'
p151
aS'nor'
p152
aS'who'
p153
aS'studied'
p154
aS'aware'
p155
aS'research'
p156
aS'on'
p157
aS'smokers'
p158
aS'have'
p159
aS'useful'
p160
aS'information'
p161
aS'whether'
p162
aS'users'
p163
aS'are'
p164
aS'at'
p165
aS'risk'
p166
aS'james'
p167
aS'a.'
p168
aS'boston'
p169
aS'institute'
p170
aS'dr.'
p171
aS'led'
p172
aS'team'
p173
aS'from'
p174
aS'national'
p175
aS'medical'
p176
aS'schools'
p177
aS'harvard'
p178
aS'university'
p179
aS'spokeswoman'
p180
aS'very'
p181
aS'modest'
p182
aS'amounts'
p183
aS'making'
p184
aS'paper'
p185
aS'for'
p186
aS'early'
p187
aS'1950s'
p188
aS'replaced'
p189
aS'different'
p190
aS'type'
p191
aS'billion'
p192
aS'sold'
p193
aS'company'
p194
aS'men'
p195
aS'worked'
p196
aS'closely'
p197
aS'substance'
p198
aS'died'
p199
aS'three'
p200
aS'times'
p201
aS'expected'
p202
aS'number'
p203
aS'four'
p204
aS'five'
p205
aS'surviving'
p206
aS'diseases'
p207
aS'including'
p208
aS'recently'
p209
aS'total'
p210
aS'malignant'
p211
aS'lung'
p212
aS'far'
p213
aS'higher'
p214
aS'rate'
p215
aS'striking'
p216
aS'finding'
p217
aS'those'
p218
aS'us'
p219
aS'study'
p220
aS'west'
p221
aS'mass.'
p222
aS'factory'
p223
aS'appears'
p224
aS'be'
p225
aS'highest'
p226
aS'western'
p227
aS'industrialized'
p228
aS'countries'
p229
aS'he'
p230
aS'plant'
p231
aS'which'
p232
aS'owned'
p233
aS'by'
p234
aS'&'
p235
aS'co.'
p236
aS'under'
p237
aS'contract'
p238
aS'probably'
p239
aS'support'
p240
aS'argue'
p241
aS'u.s.'
p242
aS'should'
p243
aS'regulate'
p244
aS'class'
p245
aS'common'
p246
aS'kind'
p247
aS'found'
p248
aS'most'
p249
aS'other'
p250
aS'buildings'
p251
aS'one'
p252
aS'few'
p253
aS'nations'
p254
aS'does'
p255
aS"n't"
p256
aS'standard'
p257
aS'regulation'
p258
aS'smooth'
p259
aS'fibers'
p260
aS'such'
p261
aS'classified'
p262
aS'according'
p263
aS't.'
p264
aS'professor'
p265
aS'vermont'
p266
aS'college'
p267
aS'easily'
p268
aS'rejected'
p269
aS'body'
p270
aS'explained'
p271
aS'july'
p272
aS'environmental'
p273
aS'protection'
p274
aS'agency'
p275
aS'imposed'
p276
aS'gradual'
p277
aS'ban'
p278
aS'virtually'
p279
aS'all'
p280
aS'uses'
p281
aS'almost'
p282
aS'remaining'
p283
aS'outlawed'
p284
aS'made'
p285
aS'areas'
p286
aS'particularly'
p287
aS'dusty'
p288
aS'where'
p289
aS'dumped'
p290
aS'large'
p291
aS'imported'
p292
aS'material'
p293
aS'into'
p294
aS'huge'
p295
aS'poured'
p296
aS'cotton'
p297
aS'mixed'
p298
aS'dry'
p299
aS'process'
p300
aS'described'
p301
aS'clouds'
p302
aS'blue'
p303
aS'dust'
p304
aS'hung'
p305
aS'over'
p306
aS'parts'
p307
aS'though'
p308
aS'fans'
p309
aS'area'
p310
aS'question'
p311
aS'some'
p312
aS'managers'
p313
aS'contracted'
p314
aS'phillips'
p315
aS'vice'
p316
aS'president'
p317
aS'human'
p318
aS'resources'
p319
aS'but'
p320
aS'you'
p321
aS'recognize'
p322
aS'these'
p323
aS'events'
p324
aS'took'
p325
aS'place'
p326
aS'bearing'
p327
aS'work'
p328
aS'force'
p329
aS'yields'
p330
aS'money-market'
p331
aS'mutual'
p332
aS'funds'
p333
aS'continued'
p334
aS'slide'
p335
aS'amid'
p336
aS'signs'
p337
aS'portfolio'
p338
aS'expect'
p339
aS'further'
p340
aS'declines'
p341
aS'interest'
p342
aS'rates'
p343
aS'average'
p344
aS'seven-day'
p345
aS'compound'
p346
aS'yield'
p347
aS'taxable'
p348
aS'tracked'
p349
aS'money'
p350
aS'fund'
p351
aS'report'
p352
aS'eased'
p353
aS'fraction'
p354
aS'point'
p355
aS'week'
p356
aS'ended'
p357
aS'tuesday'
p358
aS'assume'
p359
aS'reinvestment'
p360
aS'dividends'
p361
aS'current'
p362
aS'continues'
p363
aS'maturity'
p364
aS"'"
p365
aS'investments'
p366
aS'day'
p367
aS'days'
p368
aS'longest'
p369
aS'since'
p370
aS'august'
p371
aS'donoghue'
p372
aS'longer'
p373
aS'maturities'
p374
aS'thought'
p375
aS'indicate'
p376
aS'declining'
p377
aS'because'
p378
aS'they'
p379
aS'permit'
p380
aS'retain'
p381
aS'relatively'
p382
aS'period'
p383
aS'shorter'
p384
aS'considered'
p385
aS'sign'
p386
aS'rising'
p387
aS'can'
p388
aS'capture'
p389
aS'sooner'
p390
aS'open'
p391
aS'only'
p392
aS'institutions'
p393
aS'stronger'
p394
aS'indicator'
p395
aS'watch'
p396
aS'market'
p397
aS'reached'
p398
aS'nevertheless'
p399
aS'editor'
p400
aS'may'
p401
aS'again'
p402
aS'down'
p403
aS'recent'
p404
aS'rises'
p405
aS'short-term'
p406
aS'six-month'
p407
aS'treasury'
p408
aS'bills'
p409
aS'monday'
p410
aS'auction'
p411
aS'example'
p412
aS'rose'
p413
aS'despite'
p414
aS'investors'
p415
aS'continue'
p416
aS'pour'
p417
aS'cash'
p418
aS'assets'
p419
aS'grew'
p420
aS'$'
p421
aS'during'
p422
aS'typically'
p423
aS'money-fund'
p424
aS'beat'
p425
aS'comparable'
p426
aS'vary'
p427
aS'go'
p428
aS'after'
p429
aS'top'
p430
aS'currently'
p431
aS'yielding'
p432
aS'well'
p433
aS'dreyfus'
p434
aS'world-wide'
p435
aS'dollar'
p436
aS'had'
p437
aS'earlier'
p438
aS'invests'
p439
aS'heavily'
p440
aS'dollar-denominated'
p441
aS'securities'
p442
aS'overseas'
p443
aS'management'
p444
aS'fees'
p445
aS'boosts'
p446
aS'simple'
p447
aS'30-day'
p448
aS'fell'
p449
aS'slid'
p450
aS'j.p.'
p451
aS'grace'
p452
aS'holds'
p453
aS'elected'
p454
aS'succeeds'
p455
aS'd.'
p456
aS'formerly'
p457
aS'resigned'
p458
aS'energy'
p459
aS'seven'
p460
aS'seats'
p461
aS'pacific'
p462
aS'first'
p463
aS'financial'
p464
aS'shareholders'
p465
aS'approved'
p466
aS'acquisition'
p467
aS'royal'
p468
aS'ltd.'
p469
aS'toronto'
p470
aS'share'
p471
aS'or'
p472
aS'million'
p473
aS'thrift'
p474
aS'holding'
p475
aS'expects'
p476
aS'obtain'
p477
aS'regulatory'
p478
aS'approval'
p479
aS'complete'
p480
aS'transaction'
p481
aS'year-end'
p482
aS'international'
p483
aS'completed'
p484
aS'sale'
p485
aS'controls'
p486
aS'operations'
p487
aS's.p'
p488
aS'italian'
p489
aS'state-owned'
p490
aS'interests'
p491
aS'mechanical'
p492
aS'engineering'
p493
aS'industry'
p494
aS'based'
p495
aS'ohio'
p496
aS'computerized'
p497
aS'systems'
p498
aS'employs'
p499
aS'people'
p500
aS'annual'
p501
aS'revenue'
p502
aS'federal'
p503
aS'government'
p504
aS'suspended'
p505
aS'sales'
p506
aS'savings'
p507
aS'bonds'
p508
aS'congress'
p509
aS'lifted'
p510
aS'ceiling'
p511
aS'debt'
p512
aS'until'
p513
aS'acts'
p514
aS'authority'
p515
aS'issue'
p516
aS'obligations'
p517
aS'borrowing'
p518
aS'dropped'
p519
aS'midnight'
p520
aS'trillion'
p521
aS'legislation'
p522
aS'lift'
p523
aS'fight'
p524
aS'cutting'
p525
aS'capital-gains'
p526
aS'taxes'
p527
aS'house'
p528
aS'voted'
p529
aS'raise'
p530
aS'senate'
p531
aS'act'
p532
aS'next'
p533
aS'earliest'
p534
aS'default'
p535
aS'if'
p536
aS'then'
p537
aS'clark'
p538
aS'j.'
p539
aS'senior'
p540
aS'general'
p541
aS'manager'
p542
aS'marketing'
p543
aS'arm'
p544
aS'japanese'
p545
aS'auto'
p546
aS'maker'
p547
aS'mazda'
p548
aS'motor'
p549
aS'corp'
p550
aS'position'
p551
aS'oversee'
p552
aS'service'
p553
aS'previously'
p554
aS'chrysler'
p555
aS'division'
p556
aS'been'
p557
aS'executive'
p558
aS'when'
p559
aS'time'
p560
aS'their'
p561
aS'nation'
p562
aS'manufacturing'
p563
aS'jet'
p564
aS'off'
p565
aS'resort'
p566
aS'towns'
p567
aS'like'
p568
aS'hot'
p569
aS'springs'
p570
aS'not'
p571
aS'association'
p572
aS'manufacturers'
p573
aS'settled'
p574
aS'capital'
p575
aS'indianapolis'
p576
aS'fall'
p577
aS'meeting'
p578
aS'city'
p579
aS'decided'
p580
aS'treat'
p581
aS'guests'
p582
aS'royalty'
p583
aS'rock'
p584
aS'stars'
p585
aS'owners'
p586
aS'idea'
p587
aS'course'
p588
aS'prove'
p589
aS'corporate'
p590
aS'decision'
p591
aS'makers'
p592
aS'buckle'
p593
aS'belt'
p594
aS'so'
p595
aS'good'
p596
aS'expand'
p597
aS'receiving'
p598
aS'end'
p599
aS'message'
p600
aS'officials'
p601
aS'giants'
p602
aS'du'
p603
aS'pont'
p604
aS'along'
p605
aS'lesser'
p606
aS'steel'
p607
aS'valley'
p608
aS'queen'
p609
aS'executives'
p610
aS'joined'
p611
aS'mayor'
p612
aS'william'
p613
aS'h.'
p614
aS'iii'
p615
aS'evening'
p616
aS'guest'
p617
aS'victor'
p618
aS'champagne'
p619
aS'followed'
p620
aS'morning'
p621
aS'police'
p622
aS'wives'
p623
aS'traffic'
p624
aS'red'
p625
aS'lights'
p626
aS'governor'
p627
aS'could'
p628
aS'welcomed'
p629
aS'special'
p630
aS'buffet'
p631
aS'breakfast'
p632
aS'held'
p633
aS'museum'
p634
aS'food'
p635
aS'drinks'
p636
aS'banned'
p637
aS'everyday'
p638
aS'visitors'
p639
aS'honor'
p640
aS'out'
p641
aS'drivers'
p642
aS'crews'
p643
aS'official'
p644
aS'announcer'
p645
aS'exhibition'
p646
aS'race'
p647
aS'fortune'
p648
aS'cars'
p649
aS'pointed'
p650
aS'still'
p651
aS'space'
p652
aS'machines'
p653
aS'another'
p654
aS'sponsor'
p655
aS'name'
p656
aS'two'
p657
aS'back'
p658
aS'downtown'
p659
aS'squeezed'
p660
aS'meetings'
p661
aS'hotel'
p662
aS'buses'
p663
aS'dinner'
p664
aS'block'
p665
aS'away'
p666
aS'indiana'
p667
aS'nine'
p668
aS'hottest'
p669
aS'chefs'
p670
aS'town'
p671
aS'fed'
p672
aS'them'
p673
aS'knowing'
p674
aS'free'
p675
aS'eat'
p676
aS'gave'
p677
aS'standing'
p678
aS'say'
p679
aS'treatment'
p680
aS'return'
p681
aS'future'
p682
aS'looking'
p683
aS'forward'
p684
aS'winter'
p685
aS'february'
p686
aS'south'
p687
aS'korea'
p688
aS'registered'
p689
aS'trade'
p690
aS'deficit'
p691
aS'october'
p692
aS'reflecting'
p693
aS'country'
p694
aS'economic'
p695
aS'figures'
p696
aS'released'
p697
aS'wednesday'
p698
aS'ministry'
p699
aS'showed'
p700
aS'fifth'
p701
aS'monthly'
p702
aS'setback'
p703
aS'casting'
p704
aS'cloud'
p705
aS'economy'
p706
aS'exports'
p707
aS'stood'
p708
aS'mere'
p709
aS'increase'
p710
aS'while'
p711
aS'imports'
p712
aS'increased'
p713
aS'sharply'
p714
aS'last'
p715
aS'boom'
p716
aS'began'
p717
aS'prolonged'
p718
aS'labor'
p719
aS'disputes'
p720
aS'conflicts'
p721
aS'sluggish'
p722
aS'would'
p723
aS'remain'
p724
aS'target'
p725
aS'gloomy'
p726
aS'forecast'
p727
aS'recorded'
p728
aS'surplus'
p729
aS'january'
p730
aS'accumulated'
p731
aS'same'
p732
aS'newsweek'
p733
aS'trying'
p734
aS'keep'
p735
aS'pace'
p736
aS'rival'
p737
aS'magazine'
p738
aS'announced'
p739
aS'advertising'
p740
aS'introduce'
p741
aS'incentive'
p742
aS'plan'
p743
aS'advertisers'
p744
aS'ad'
p745
aS'washington'
p746
aS'post'
p747
aS'second'
p748
aS'offered'
p749
aS'plans'
p750
aS'give'
p751
aS'discounts'
p752
aS'maintaining'
p753
aS'increasing'
p754
aS'spending'
p755
aS'become'
p756
aS'permanent'
p757
aS'news'
p758
aS'underscore'
p759
aS'fierce'
p760
aS'competition'
p761
aS'between'
p762
aS'warner'
p763
aS'b.'
p764
aS'world'
p765
aS'alan'
p766
aS'full'
p767
aS'page'
p768
aS'cost'
p769
aS'mid-october'
p770
aS'lowered'
p771
aS'guaranteed'
p772
aS'circulation'
p773
aS'base'
p774
aS'lower'
p775
aS'effectively'
p776
aS'per'
p777
aS'subscriber'
p778
aS'costs'
p779
aS'yet'
p780
aS'announce'
p781
aS'credit'
p782
aS'credits'
p783
aS'renewal'
p784
aS'reward'
p785
aS'bonuses'
p786
aS'meet'
p787
aS'exceed'
p788
aS'long'
p789
aS'spent'
p790
aS'attempt'
p791
aS'shore'
p792
aS'decline'
p793
aS'pages'
p794
aS'months'
p795
aS'totaled'
p796
aS'drop'
p797
aS'publishers'
p798
aS'bureau'
p799
aS'what'
p800
aS'matters'
p801
aS'paying'
p802
aS'department'
p803
aS'doing'
p804
aS'fine'
p805
aS'both'
p806
aS'gaining'
p807
aS'without'
p808
aS'heavy'
p809
aS'use'
p810
aS'electronic'
p811
aS'subscribers'
p812
aS'telephones'
p813
aS'watches'
p814
aS'however'
p815
aS'none'
p816
aS'big'
p817
aS'gains'
p818
aS'audit'
p819
aS'largest'
p820
aS'decrease'
p821
aS'six'
p822
aS'flat'
p823
aS'electric'
p824
aS'system'
p825
aS'bowed'
p826
aS'bidding'
p827
aS'public'
p828
aS'hampshire'
p829
aS'saying'
p830
aS'risks'
p831
aS'too'
p832
aS'potential'
p833
aS'justify'
p834
aS'offer'
p835
aS'move'
p836
aS'leaves'
p837
aS'united'
p838
aS'illuminating'
p839
aS'northeast'
p840
aS'utilities'
p841
aS'outside'
p842
aS'bidders'
p843
aS'ps'
p844
aS'also'
p845
aS'proposed'
p846
aS'internal'
p847
aS'reorganization'
p848
aS'chapter'
p849
aS'bankruptcy'
p850
aS'proceedings'
p851
aS'independent'
p852
aS'acquire'
p853
aS'below'
p854
aS'value'
p855
aS'places'
p856
aS'bid'
p857
aS'says'
p858
aS'worth'
p859
aS'haven'
p860
aS'conn.'
p861
aS'hartford'
p862
aS'conn'
p863
aS'n.h.'
p864
aS'values'
p865
aS'john'
p866
aS'rowe'
p867
aS'chief'
p868
aS'officer'
p869
aS'equity'
p870
aS'suffer'
p871
aS'forecasts'
p872
aS'related'
p873
aS'growth'
p874
aS'electricity'
p875
aS'demand'
p876
aS'improved'
p877
aS'operating'
p878
aS'did'
p879
aS'come'
p880
aS'true'
p881
aS'raising'
p882
aS'seemed'
p883
aS'substantial'
p884
aS'persistent'
p885
aS'rewards'
p886
aS'way'
p887
aS'got'
p888
aS'hard'
p889
aS'take'
p890
aS'added'
p891
aS'noted'
p892
aS'political'
p893
aS'concerns'
p894
aS'worried'
p895
aS'matter'
p896
aS'owns'
p897
aS'emerges'
p898
aS'attracts'
p899
aS'just'
p900
aS'factors'
p901
aS'withdraw'
p902
aS'wilbur'
p903
aS'ross'
p904
aS'jr.'
p905
aS'rothschild'
p906
aS'adviser'
p907
aS'troubled'
p908
aS'holders'
p909
aS'withdrawal'
p910
aS'might'
p911
aS'speed'
p912
aS'fact'
p913
aS'increases'
p914
aS'against'
p915
aS'around'
p916
aS'complicated'
p917
aS'negotiations'
p918
aS'state'
p919
aS'asserted'
p920
aS'field'
p921
aS'less'
p922
aS'separately'
p923
aS'commission'
p924
aS'turned'
p925
aS'request'
p926
aS'seeking'
p927
aS'possible'
p928
aS'purchase'
p929
aS'hopes'
p930
aS'review'
p931
aS'ferc'
p932
aS'summer'
p933
aS'court'
p934
aS'shares'
p935
aS'closed'
p936
aS'yesterday'
p937
aS'cents'
p938
aS'york'
p939
aS'stock'
p940
aS'exchange'
p941
aS'composite'
p942
aS'trading'
p943
aS'norman'
p944
aS'toys'
p945
aS'r'
p946
aS'frederick'
p947
aS'banking'
p948
aS'directors'
p949
aS'consumer'
p950
aS'electronics'
p951
aS'appliances'
p952
aS'retailing'
p953
aS'chain'
p954
aS'succeed'
p955
aS'daniel'
p956
aS'm.'
p957
aS'retired'
p958
aS'circuit'
p959
aS'robert'
p960
aS'r.'
p961
aS'undersecretary'
p962
aS'commonwealth'
p963
aS'edison'
p964
aS'ordered'
p965
aS'refund'
p966
aS'illegal'
p967
aS'collected'
p968
aS'overruns'
p969
aS'nuclear'
p970
aS'power'
p971
aS'illinois'
p972
aS'commerce'
p973
aS'groups'
p974
aS'ever'
p975
aS'required'
p976
aS'local'
p977
aS'utility'
p978
aS'judge'
p979
aS'richard'
p980
aS'curry'
p981
aS'refunds'
p982
aS'each'
p983
aS'customers'
p984
aS'received'
p985
aS'april'
p986
aS'moved'
p987
aS'begin'
p988
aS'feb.'
p989
aS'appeals'
p990
aS'attempts'
p991
aS'his'
p992
aS'order'
p993
aS'pool'
p994
aS'through'
p995
aS'round'
p996
aS'already'
p997
aS'appealing'
p998
aS'underlying'
p999
aS'considering'
p1000
aS'exact'
p1001
aS'amount'
p1002
aS'determined'
p1003
aS'actual'
p1004
aS'dec.'
p1005
aS'ruling'
p1006
aS'slash'
p1007
aS'earnings'
p1008
aS'spokesman'
p1009
aS'tracking'
p1010
aS'whose'
p1011
aS'addresses'
p1012
aS'changed'
p1013
aS'past'
p1014
aS'administrative'
p1015
aS'nightmare'
p1016
aS'near'
p1017
aS'ill.'
p1018
aS'disputed'
p1019
aS'pay'
p1020
aS'courts'
p1021
aS'upheld'
p1022
aS'challenge'
p1023
aS'supreme'
p1024
aS'construction'
p1025
aS'expenses'
p1026
aS'collecting'
p1027
aS'subject'
p1028
aS'ruled'
p1029
aS'plus'
p1030
aS'additional'
p1031
aS'calculations'
p1032
aS'month'
p1033
aS'set'
p1034
aS'faces'
p1035
aS'appellate'
p1036
aS'estimated'
p1037
aS'hope'
p1038
aS'precedent'
p1039
aS'case'
p1040
aS'involving'
p1041
aS'rule'
p1042
aS'poor'
p1043
aS'performance'
p1044
aS'i'
p1045
aS'japan'
p1046
aS'domestic'
p1047
aS'trucks'
p1048
aS'units'
p1049
aS'record'
p1050
aS'automobile'
p1051
aS'dealers'
p1052
aS'strong'
p1053
aS'year-to-year'
p1054
aS'september'
p1055
aS'setting'
p1056
aS'records'
p1057
aS'every'
p1058
aS'march'
p1059
aS'compared'
p1060
aS'previous'
p1061
aS'inched'
p1062
aS'passenger'
p1063
aS'medium-sized'
p1064
aS'benefited'
p1065
aS'price'
p1066
aS'reductions'
p1067
aS'arising'
p1068
aS'introduction'
p1069
aS'consumption'
p1070
aS'tax'
p1071
aS'doubled'
p1072
aS'texas'
p1073
aS'instruments'
p1074
aS'opened'
p1075
aS'manufacture'
p1076
aS'control'
p1077
aS'devices'
p1078
aS'located'
p1079
aS'miles'
p1080
aS'seoul'
p1081
aS'help'
p1082
aS'diversifying'
p1083
aS'produce'
p1084
aS'vehicles'
p1085
aS'household'
p1086
aS'survival'
p1087
aS'spinoff'
p1088
aS'cray'
p1089
aS'computer'
p1090
aS'fledgling'
p1091
aS'supercomputer'
p1092
aS'business'
p1093
aS'depend'
p1094
aS'creativity'
p1095
aS'designer'
p1096
aS'seymour'
p1097
aS'development'
p1098
aS'initial'
p1099
aS'machine'
p1100
aS'tied'
p1101
aS'directly'
p1102
aS'balance'
p1103
aS'sheet'
p1104
aS'documents'
p1105
aS'filed'
p1106
aS'pending'
p1107
aS'disclosed'
p1108
aS'financing'
p1109
aS'providing'
p1110
aS'firm'
p1111
aS'project'
p1112
aS'heads'
p1113
aS'scrapped'
p1114
aS'working'
p1115
aS'cray-3'
p1116
aS'least'
p1117
aS'fully'
p1118
aS'operational'
p1119
aS'prototype'
p1120
aS'moreover'
p1121
aS'orders'
p1122
aS'several'
p1123
aS'prospects'
p1124
aS'many'
p1125
aS'anticipated'
p1126
aS'attached'
p1127
aS'much'
p1128
aS'choice'
p1129
aS'gregory'
p1130
aS'interview'
p1131
aS'theory'
p1132
aS'him'
p1133
aS'want'
p1134
aS'include'
p1135
aS'anticipates'
p1136
aS'perhaps'
p1137
aS'beginning'
p1138
aS'called'
p1139
aS'scenario'
p1140
aS'filing'
p1141
aS'details'
p1142
aS'jump'
p1143
aS'close'
p1144
aS'analysts'
p1145
aS'link'
p1146
aS'note'
p1147
aS'presence'
p1148
aS'complicate'
p1149
aS'valuation'
p1150
aS'investor'
p1151
aS'gary'
p1152
aS'p.'
p1153
aS'minneapolis'
p1154
aS'concept'
p1155
aS'either'
p1156
aS'believe'
p1157
aS'do'
p1158
aS'besides'
p1159
aS'age'
p1160
aS'tricky'
p1161
aS'chip'
p1162
aS'technology'
p1163
aS'sec'
p1164
aS'describe'
p1165
aS'chips'
p1166
aS'being'
p1167
aS'fragile'
p1168
aS'minute'
p1169
aS'require'
p1170
aS'handling'
p1171
aS'equipment'
p1172
aS'addition'
p1173
aS'contain'
p1174
aS'processors'
p1175
aS'twice'
p1176
aS'face'
p1177
aS'intense'
p1178
aS'roll'
p1179
aS'direct'
p1180
aS'competitor'
p1181
aS'compete'
p1182
aS'hitachi'
p1183
aS'nec'
p1184
aS'fujitsu'
p1185
aS'ltd'
p1186
aS'believes'
p1187
aS'fewer'
p1188
aS'priced'
p1189
aS'presumably'
p1190
aS'range'
p1191
aS'terms'
p1192
aS'stockholders'
p1193
aS'receive'
p1194
aS'own'
p1195
aS'distribution'
p1196
aS'occur'
p1197
aS'weeks'
p1198
aS'instead'
p1199
aS'companies'
p1200
aS'leave'
p1201
aS'marketplace'
p1202
aS'decide'
p1203
aS'applied'
p1204
aS'nasdaq'
p1205
aS'calculate'
p1206
aS'book'
p1207
aS'primarily'
p1208
aS'drain'
p1209
aS'sheets'
p1210
aS'clearly'
p1211
aS'why'
p1212
aS'favored'
p1213
aS'able'
p1214
aS'profit'
p1215
aS'half'
p1216
aS'rather'
p1217
aS'posted'
p1218
aS'hand'
p1219
aS'existed'
p1220
aS'incurred'
p1221
aS'loss'
p1222
aS'comment'
p1223
aS'colorado'
p1224
aS'colo.'
p1225
aS'contractor'
p1226
aS'arrangement'
p1227
aS'regarded'
p1228
aS'father'
p1229
aS'paid'
p1230
aS'messrs.'
p1231
aS'includes'
p1232
aS'neil'
p1233
aS'joseph'
p1234
aS'malcolm'
p1235
aS'software'
p1236
aS'douglas'
p1237
aS'hardware'
p1238
aS'came'
p1239
aS'stevens'
p1240
aS'positions'
p1241
aS'donald'
p1242
aS'arthur'
p1243
aS'hatch'
p1244
aS'eastern'
p1245
aS'claiming'
p1246
aS'success'
p1247
aS'removed'
p1248
aS'taiwan'
p1249
aS'saudi'
p1250
aS'arabia'
p1251
aS'list'
p1252
aS'watching'
p1253
aS'allegedly'
p1254
aS'failing'
p1255
aS'patents'
p1256
aS'rights'
p1257
aS'china'
p1258
aS'thailand'
p1259
aS'india'
p1260
aS'brazil'
p1261
aS'mexico'
p1262
aS'so-called'
p1263
aS'priority'
p1264
aS'result'
p1265
aS'interim'
p1266
aS'representative'
p1267
aS'carla'
p1268
aS'hills'
p1269
aS'law'
p1270
aS'accelerated'
p1271
aS'investigations'
p1272
aS'stiff'
p1273
aS'sanctions'
p1274
aS'improve'
p1275
aS'intellectual'
p1276
aS'property'
p1277
aS'spring'
p1278
aS'mrs.'
p1279
aS'she'
p1280
aS'placed'
p1281
aS'degrees'
p1282
aS'scrutiny'
p1283
aS'genuine'
p1284
aS'progress'
p1285
aS'touchy'
p1286
aS'growing'
p1287
aS'citizens'
p1288
aS'negotiators'
p1289
aS'inadequate'
p1290
aS'hurting'
p1291
aS'themselves'
p1292
aS'discouraging'
p1293
aS'scientists'
p1294
aS'authors'
p1295
aS'high-technology'
p1296
aS'firms'
p1297
aS'investing'
p1298
aS'best'
p1299
aS'creating'
p1300
aS'task'
p1301
aS'enforcement'
p1302
aS'teams'
p1303
aS'officers'
p1304
aS'prosecutors'
p1305
aS'trained'
p1306
aS'pursue'
p1307
aS'movie'
p1308
aS'instituted'
p1309
aS'effective'
p1310
aS'procedures'
p1311
aS'aid'
p1312
aS'copyright'
p1313
aS'agreement'
p1314
aS'trademark'
p1315
aS'introducing'
p1316
aS'protect'
p1317
aS'foreign'
p1318
aS'producers'
p1319
aS'unauthorized'
p1320
aS'films'
p1321
aS'measure'
p1322
aS'taipei'
p1323
aS'small'
p1324
aS'showing'
p1325
aS'part'
p1326
aS'vowed'
p1327
aS'enact'
p1328
aS'compatible'
p1329
aS'standards'
p1330
aS'apply'
p1331
aS'literary'
p1332
aS'works'
p1333
aS'completely'
p1334
aS'hook'
p1335
aS'italy'
p1336
aS'canada'
p1337
aS'greece'
p1338
aS'spain'
p1339
aS'concern'
p1340
aS'deemed'
p1341
aS'pose'
p1342
aS'problems'
p1343
aS'american'
p1344
aS'patent'
p1345
aS'hoffman'
p1346
aS'lawyer'
p1347
aS'specializing'
p1348
aS'cases'
p1349
aS'threat'
p1350
aS'combined'
p1351
aS'recognition'
p1352
aS'protecting'
p1353
aS'prompted'
p1354
aS'improvements'
p1355
aS'tells'
p1356
aS'efforts'
p1357
aS'craft'
p1358
aS'concerned'
p1359
aS'disturbing'
p1360
aS'developments'
p1361
aS'turkey'
p1362
aS'continuing'
p1363
aS'slow'
p1364
aS'malaysia'
p1365
aS'elaborate'
p1366
aS'reports'
p1367
aS'complained'
p1368
aS'videocassette'
p1369
aS'pharmaceutical'
p1370
aS'requires'
p1371
aS'bad'
p1372
aS'enough'
p1373
aS'merit'
p1374
aS'investigation'
p1375
aS'provision'
p1376
aS'argentina'
p1377
aS'ask'
p1378
aS'creditor'
p1379
aS'banks'
p1380
aS'developing'
p1381
aS'declaration'
p1382
aS'minister'
p1383
aS'believed'
p1384
aS'action'
p1385
aS'latin'
p1386
aS'little'
p1387
aS'reach'
p1388
aS'reduction'
p1389
aS'external'
p1390
aS'met'
p1391
aS'assistant'
p1392
aS'secretary'
p1393
aS'david'
p1394
aS'mulford'
p1395
aS'negotiator'
p1396
aS'carlos'
p1397
aS'office'
p1398
aS'feels'
p1399
aS'significant'
p1400
aS'principal'
p1401
aS'solved'
p1402
aS'wants'
p1403
aS'centennial'
p1404
aS'wall'
p1405
aS'street'
p1406
aS'century'
p1407
aS'stand'
p1408
aS'milestones'
p1409
aS'history'
p1410
aS'computers'
p1411
aS'personal'
p1412
aS'computing'
p1413
aS'launched'
p1414
aS'apple'
p1415
aS'ii'
p1416
aS'commodore'
p1417
aS'pet'
p1418
aS'tandy'
p1419
aS'crude'
p1420
aS'television'
p1421
aS'sets'
p1422
aS'screens'
p1423
aS'data'
p1424
aS'major'
p1425
aS'advance'
p1426
aS'built'
p1427
aS'garage'
p1428
aS'stephen'
p1429
aS'steven'
p1430
aS'jobs'
p1431
aS'club'
p1432
aS'affordable'
p1433
aS'pcs'
p1434
aS'triggered'
p1435
aS'explosive'
p1436
aS'product'
p1437
aS'desktop'
p1438
aS'models'
p1439
aS'home'
p1440
aS'mainframe'
p1441
aS'unlike'
p1442
aS'types'
p1443
aS'store'
p1444
aS'memories'
p1445
aS'faster'
p1446
aS'memory'
p1447
aS'capacity'
p1448
aS'greater'
p1449
aS'counterparts'
p1450
aS'pioneer'
p1451
aS'pc'
p1452
aS'gates'
p1453
aS'paul'
p1454
aS'allen'
p1455
aS'developed'
p1456
aS'became'
p1457
aS'billionaire'
p1458
aS'ibm'
p1459
aS'adapted'
p1460
aS'versions'
p1461
aS'f.'
p1462
aS'seagate'
p1463
aS'disk'
p1464
aS'drives'
p1465
aS'dennis'
p1466
aS'dale'
p1467
aS'atlanta'
p1468
aS'engineers'
p1469
aS'allow'
p1470
aS'via'
p1471
aS'telephone'
p1472
aS'leader'
p1473
aS'entered'
p1474
aS'shipments'
p1475
aS'annually'
p1476
aS'australian'
p1477
aS'pharmaceuticals'
p1478
aS'affiliate'
p1479
aS'acquired'
p1480
aS'sells'
p1481
aS'label'
p1482
aS'voting'
p1483
aS'stake'
p1484
aS'together'
p1485
aS'convertible'
p1486
aS'preferred'
p1487
aS'holdings'
p1488
aS'gives'
p1489
aS'right'
p1490
aS'oil'
p1491
aS'production'
p1492
aS'australia'
p1493
aS'bass'
p1494
aS'raised'
p1495
aS'barrels'
p1496
aS'launch'
p1497
aS'scheduled'
p1498
aS'brought'
p1499
aS'esso'
p1500
aS'exxon'
p1501
aS'broken'
p1502
aS'hill'
p1503
aS'operate'
p1504
aS'joint'
p1505
aS'venture'
p1506
aS'started'
p1507
aS'output'
p1508
aS'gradually'
p1509
aS'reaches'
p1510
aS'reserves'
p1511
aS'start'
p1512
aS'producing'
p1513
aS'southern'
p1514
aS'optical'
p1515
aS'subsidiary'
p1516
aS'thomas'
p1517
aS'sloan'
p1518
aS'following'
p1519
aS'buy-out'
p1520
aS'shearson'
p1521
aS'lehman'
p1522
aS'hutton'
p1523
aS'itself'
p1524
aS'certain'
p1525
aS'businesses'
p1526
aS'program'
p1527
aS'white'
p1528
aS'bush'
p1529
aS'duty-free'
p1530
aS'produced'
p1531
aS'quantities'
p1532
aS'virgin'
p1533
aS'islands'
p1534
aS'response'
p1535
aS'petition'
p1536
aS'changes'
p1537
aS'preferences'
p1538
aS'denied'
p1539
aS'requested'
p1540
aS'covered'
p1541
aS'tariff'
p1542
aS'grant'
p1543
aS'status'
p1544
aS'categories'
p1545
aS'injury'
p1546
aS'producer'
p1547
aS'seller'
p1548
aS'assembled'
p1549
aS'philippines'
p1550
aS'main'
p1551
aS'beneficiaries'
p1552
aS'eligible'
p1553
aS'aide'
p1554
aS'magna'
p1555
aS'mcalpine'
p1556
aS'frank'
p1557
aS'stepping'
p1558
aS'turn'
p1559
aS'manufacturer'
p1560
aS'effort'
p1561
aS'reduce'
p1562
aS'overhead'
p1563
aS'curb'
p1564
aS'satisfactory'
p1565
aS'level'
p1566
aS'achieved'
p1567
aS'maintained'
p1568
aS'finance'
p1569
aS'ambitious'
p1570
aS'expansion'
p1571
aS'left'
p1572
aS'excess'
p1573
aS'load'
p1574
aS'automotive'
p1575
aS'downturn'
p1576
aS'steady'
p1577
aS'cut'
p1578
aS'quarterly'
p1579
aS'dividend'
p1580
aS'52-week'
p1581
aS'canadian'
p1582
aS'dollars'
p1583
aS'us$'
p1584
aS'c$'
p1585
aS'founder'
p1586
aS'controlling'
p1587
aS'shareholder'
p1588
aS'seek'
p1589
aS'unsuccessfully'
p1590
aS'seat'
p1591
aS'parliament'
p1592
aS'resume'
p1593
aS'influential'
p1594
aS'role'
p1595
aS'running'
p1596
aS'throughout'
p1597
aS'organization'
p1598
aS'personally'
p1599
aS'restructuring'
p1600
aS'consulting'
p1601
aS'career'
p1602
aS'clients'
p1603
aS'lord'
p1604
aS'english'
p1605
aS'chemical'
p1606
aS'nearly'
p1607
aS'bought'
p1608
aS'mortgage'
p1609
aS'totaling'
p1610
aS'purchases'
p1611
aS'fannie'
p1612
aS'mae'
p1613
aS'o.'
p1614
aS'maxwell'
p1615
aS'conference'
p1616
aS'institutional'
p1617
aS'rest'
p1618
aS'went'
p1619
aS'france'
p1620
aS'hong'
p1621
aS'kong'
p1622
aS'snapped'
p1623
aS'similar'
p1624
aS'mortgage-backed'
p1625
aS'put'
p1626
aS'blackstone'
p1627
aS'investment'
p1628
aS'bank'
p1629
aS'jointly'
p1630
aS'goldman'
p1631
aS'sachs'
p1632
aS'daiwa'
p1633
aS'co'
p1634
aS'seven-year'
p1635
aS'offering'
p1636
aS'fixed-rate'
p1637
aS'floating-rate'
p1638
aS'linked'
p1639
aS'london'
p1640
aS'interbank'
p1641
aS'key'
p1642
aS'advantages'
p1643
aS'designed'
p1644
aS'eliminate'
p1645
aS'prepayment'
p1646
aS'forces'
p1647
aS'channel'
p1648
aS'payments'
p1649
aS'semiannual'
p1650
aS'reducing'
p1651
aS'burden'
p1652
aS'addressing'
p1653
aS'extremely'
p1654
aS'attractive'
p1655
aS'boosted'
p1656
aS'outstanding'
p1657
aS'rapid'
p1658
aS'purchasers'
p1659
aS'buying'
p1660
aS'issued'
p1661
aS'l.'
p1662
aS'expanding'
p1663
aS'members'
p1664
aS'ltv'
p1665
aS'agreed'
p1666
aS'extend'
p1667
aS'aerospace'
p1668
aS'exclusive'
p1669
aS'file'
p1670
aS'code'
p1671
aS'giving'
p1672
aS'creditors'
p1673
aS'lawsuits'
p1674
aS'debts'
p1675
aS'giant'
p1676
aS'montedison'
p1677
aS'indirect'
p1678
aS'tender'
p1679
aS'erbamont'
p1680
aS'incorporated'
p1681
aS'netherlands'
p1682
aS'advertised'
p1683
aS'editions'
p1684
aS'expire'
p1685
aS'november'
p1686
aS'currencies'
p1687
aS'drawing'
p1688
aS'hefty'
p1689
aS'marks'
p1690
aS'sixth'
p1691
aS'consecutive'
p1692
aS'reflects'
p1693
aS'intensity'
p1694
aS'intervention'
p1695
aS'june'
p1696
aS'currency'
p1697
aS'temporarily'
p1698
aS'surged'
p1699
aS'above'
p1700
aS'yen'
p1701
aS'announcement'
p1702
aS'follows'
p1703
aS'sharper'
p1704
aS'pick'
p1705
aS'craze'
p1706
aS'sweeping'
p1707
aS'rash'
p1708
aS'closed-end'
p1709
aS'publicly'
p1710
aS'traded'
p1711
aS'portfolios'
p1712
aS'invest'
p1713
aS'stocks'
p1714
aS'single'
p1715
aS'regulators'
p1716
aS'triple'
p1717
aS'charles'
p1718
aS'e.'
p1719
aS'simon'
p1720
aS'washington-based'
p1721
aS'turf'
p1722
aS'ranged'
p1723
aS'chile'
p1724
aS'portugal'
p1725
aS'philippine'
p1726
aS'capped'
p1727
aS'visit'
p1728
aS'aquino'
p1729
aS'head'
p1730
aS'kicked'
p1731
aS'here'
p1732
aS'province'
p1733
aS'anything'
p1734
aS'how'
p1735
aS'guinea'
p1736
aS'george'
p1737
aS'foot'
p1738
aS'managing'
p1739
aS'partner'
p1740
aS'associates'
p1741
aS'mass'
p1742
aS'explosion'
p1743
aS'mania'
p1744
aS'1920s'
p1745
aS'narrowly'
p1746
aS'focused'
p1747
aS'wildly'
p1748
aS'popular'
p1749
aS'crash'
p1750
aS'traditional'
p1751
aS'issuing'
p1752
aS'fixed'
p1753
aS'surge'
p1754
aS'brings'
p1755
aS'soon'
p1756
aS'listed'
p1757
aS'account'
p1758
aS'billions'
p1759
aS'claims'
p1760
aS'available'
p1761
aS'runs'
p1762
aS'michael'
p1763
aS'porter'
p1764
aS'analyst'
p1765
aS'smith'
p1766
aS'barney'
p1767
aS'harris'
p1768
aS'upham'
p1769
aS'behind'
p1770
aS'individual'
p1771
aS'scrambled'
p1772
aS'find'
p1773
aS'brokers'
p1774
aS'easy'
p1775
aS'sell'
p1776
aS'stretching'
p1777
aS'wide'
p1778
aS'planners'
p1779
aS'often'
p1780
aS'urge'
p1781
aS'diversify'
p1782
aS'hold'
p1783
aS'emerging'
p1784
aS'markets'
p1785
aS'mature'
p1786
aS'get'
p1787
aS'taste'
p1788
aS'burned'
p1789
aS'gyrations'
p1790
aS'prices'
p1791
aS'tend'
p1792
aS'swing'
p1793
aS'broader'
p1794
aS'oct.'
p1795
aS'instance'
p1796
aS'plunged'
p1797
aS'clobbered'
p1798
aS'wild'
p1799
aS'frenzy'
p1800
aS'historically'
p1801
aS'fat'
p1802
aS'premiums'
p1803
aS'discount'
p1804
aS'late'
p1805
aS'premium'
p1806
aS'reason'
p1807
aS'climbed'
p1808
aS'partially'
p1809
aS'specialists'
p1810
aS'european'
p1811
aS'skyrocketed'
p1812
aS'startling'
p1813
aS'targeted'
p1814
aS'long-term'
p1815
aS'play'
p1816
aS'integration'
p1817
aS'invested'
p1818
aS'jumped'
p1819
aS"'m"
p1820
aS'alarmed'
p1821
aS'see'
p1822
aS'rich'
p1823
aS'newly'
p1824
aS'reflect'
p1825
aS'increasingly'
p1826
aS'global'
p1827
aS'suggests'
p1828
aS'asia'
p1829
aS'europe'
p1830
aS'exposure'
p1831
aS'viewpoint'
p1832
aS'cast'
p1833
aS'nonetheless'
p1834
aS'plenty'
p1835
aS'levels'
p1836
aS'buy'
p1837
aS'depositary'
p1838
aS'receipts'
p1839
aS'adrs'
p1840
aS'represent'
p1841
aS'essentially'
p1842
aS'insist'
p1843
aS'jumping'
p1844
aS'advice'
p1845
aS'folks'
p1846
aS'party'
p1847
aS'better'
p1848
aS'ready'
p1849
aS'quickly'
p1850
aS'soviet'
p1851
aS'union'
p1852
aS'technical'
p1853
aS'talks'
p1854
aS'repayment'
p1855
aS'moscow'
p1856
aS'russian'
p1857
aS'owed'
p1858
aS'repaid'
p1859
aS'clear'
p1860
aS'soviets'
p1861
aS'happen'
p1862
aS'permitted'
p1863
aS'branch'
p1864
aS'affairs'
p1865
aS'unless'
p1866
aS'settle'
p1867
aS'lent'
p1868
aS'short-lived'
p1869
aS'democratic'
p1870
aS'communists'
p1871
aS'seized'
p1872
aS'johnson'
p1873
aS'amended'
p1874
aS'americans'
p1875
aS'monetary'
p1876
aS'u.s.s.r.'
p1877
aS'belongs'
p1878
aS'stressed'
p1879
aS'satisfying'
p1880
aS'legal'
p1881
aS'obstacles'
p1882
aS'hundreds'
p1883
aS'millions'
p1884
aS'war'
p1885
aS'reflection'
p1886
aS'manufactured'
p1887
aS'goods'
p1888
aS'failed'
p1889
aS'rise'
p1890
aS'meanwhile'
p1891
aS'purchasing'
p1892
aS'survey'
p1893
aS'indicated'
p1894
aS'index'
p1895
aS'reading'
p1896
aS'sector'
p1897
aS'generally'
p1898
aS'factories'
p1899
aS'booked'
p1900
aS'defense'
p1901
aS'contractors'
p1902
aS'fallen'
p1903
aS'separate'
p1904
aS'ran'
p1905
aS'significantly'
p1906
aS'private'
p1907
aS'building'
p1908
aS'activity'
p1909
aS'adjusted'
p1910
aS'remove'
p1911
aS'effects'
p1912
aS'usual'
p1913
aS'seasonal'
p1914
aS'patterns'
p1915
aS'inflation'
p1916
aS'kenneth'
p1917
aS'economist'
p1918
aS'society'
p1919
aS'cleveland'
p1920
aS'revive'
p1921
aS'residential'
p1922
aS'slack'
p1923
aS'asked'
p1924
aS'draw'
p1925
aS'blank'
p1926
aS'measures'
p1927
aS'slowly'
p1928
aS'reserve'
p1929
aS'economists'
p1930
aS'predicting'
p1931
aS'slip'
p1932
aS'recession'
p1933
aS'cite'
p1934
aS'lack'
p1935
aS'imbalances'
p1936
aS'provide'
p1937
aS'warning'
p1938
aS'signals'
p1939
aS'inventories'
p1940
aS'watched'
p1941
aS'clues'
p1942
aS'buildup'
p1943
aS'cutbacks'
p1944
aS'lead'
p1945
aS'front'
p1946
aS'soft'
p1947
aS'landing'
p1948
aS'elliott'
p1949
aS'donaldson'
p1950
aS'lufkin'
p1951
aS'jenrette'
p1952
aS'excessive'
p1953
aS'slowdown'
p1954
aS'leading'
p1955
aS'intended'
p1956
aS'climbing'
p1957
aS'durable'
p1958
aS'backlogs'
p1959
aS'unfilled'
p1960
aS'helped'
p1961
aS'strength'
p1962
aS'excluding'
p1963
aS'declined'
p1964
aS'accounts'
p1965
aS'bankers'
p1966
aS'predicted'
p1967
aS'eventually'
p1968
aS'boost'
p1969
aS'single-family'
p1970
aS'homes'
p1971
aS'adjusting'
p1972
aS'change'
p1973
aS'contrast'
p1974
aS'mcgraw-hill'
p1975
aS'dodge'
p1976
aS'contracts'
p1977
aS'awarded'
p1978
aS'counts'
p1979
aS'slowing'
p1980
aS'imminent'
p1981
aS'committee'
p1982
aS'materials'
p1983
aS'pitney'
p1984
aS'bowes'
p1985
aS'stamford'
p1986
aS'low'
p1987
aS'evidence'
p1988
aS'export'
p1989
aS'purchased'
p1990
aS'vendors'
p1991
aS'delivering'
p1992
aS'consider'
p1993
aS'pressures'
p1994
aS'suppliers'
p1995
aS'handle'
p1996
aS'delivery'
p1997
aS'provided'
p1998
aS'indicators'
p1999
aS'difference'
p2000
aS'reporting'
p2001
aS'improvement'
p2002
aS'particular'
p2003
aS'worsening'
p2004
aS'polled'
p2005
aS'import'
p2006
aS'acknowledging'
p2007
aS'trend'
p2008
aS'suspect'
p2009
aS'going'
p2010
aS'items'
p2011
aS'short'
p2012
aS'supply'
p2013
aS'numbered'
p2014
aS'dozen'
p2015
aS'included'
p2016
aS'milk'
p2017
aS'odd'
p2018
aS'thing'
p2019
aS'row'
p2020
aS'shortage'
p2021
aS'blamed'
p2022
aS'dairy'
p2023
aS'exceptionally'
p2024
aS'coupled'
p2025
aS'quotas'
p2026
aS'contributed'
p2027
aS'article'
p2028
aS'seasonally'
p2029
aS'judging'
p2030
aS'sheep'
p2031
aS'chase'
p2032
aS'baby'
p2033
aS'boomers'
p2034
aS'sides'
p2035
aS'lot'
p2036
aS'novel'
p2037
aS'entirely'
p2038
aS'especially'
p2039
aS'characters'
p2040
aS'drink'
p2041
aS'dogs'
p2042
aS'bugs'
p2043
aS'bunny'
p2044
aS'reruns'
p2045
aS'read'
p2046
aS'talk'
p2047
aS'worry'
p2048
aS'careers'
p2049
aS'reader'
p2050
aS'engaging'
p2051
aS'recognizing'
p2052
aS'contemporary'
p2053
aS'author'
p2054
aS'belong'
p2055
aS'school'
p2056
aS'writers'
p2057
aS'notion'
p2058
aS'unique'
p2059
aS'outsiders'
p2060
aS'carries'
p2061
aS'implicit'
p2062
aS'relations'
p2063
aS'think'
p2064
aS'plot'
p2065
aS'rooted'
p2066
aS'reality'
p2067
aS'funny'
p2068
aS'hero'
p2069
aS'snow'
p2070
aS'search'
p2071
aS'star'
p2072
aS'stanford'
p2073
aS'degree'
p2074
aS'girlfriend'
p2075
aS'sassy'
p2076
aS'mark'
p2077
aS'her'
p2078
aS'meets'
p2079
aS'christian'
p2080
aS'offers'
p2081
aS'god'
p2082
aS'phone'
p2083
aS'man'
p2084
aS'sweet'
p2085
aS'figure'
p2086
aS'wears'
p2087
aS'else'
p2088
aS'40-year-old'
p2089
aS'norwegian'
p2090
aS'wood'
p2091
aS'seems'
p2092
aS'copies'
p2093
aS'published'
p2094
aS'tokyo'
p2095
aS'pack'
p2096
aS'charts'
p2097
aS'books'
p2098
aS'written'
p2099
aS'language'
p2100
aS'usually'
p2101
aS'carry'
p2102
aS'macmillan'
p2103
aS'baseball'
p2104
aS'version'
p2105
aS'call'
p2106
aS'game'
p2107
aS'describes'
p2108
aS'mirror'
p2109
aS'harmony'
p2110
aS'spirit'
p2111
aS'player'
p2112
aS'commitment'
p2113
aS'practice'
p2114
aS'image'
p2115
aS'important'
p2116
aS'polls'
p2117
aS'soul'
p2118
aS'male'
p2119
aS'symbol'
p2120
aS'played'
p2121
aS'ball'
p2122
aS'bat'
p2123
aS'balls'
p2124
aS'stadium'
p2125
aS'strike'
p2126
aS'zone'
p2127
aS'depending'
p2128
aS'size'
p2129
aS'ties'
p2130
aS'shame'
p2131
aS'defeat'
p2132
aS'players'
p2133
aS'must'
p2134
aS'strict'
p2135
aS'rules'
p2136
aS'conduct'
p2137
aS'lives'
p2138
aS'always'
p2139
aS'wear'
p2140
aS'road'
p2141
aS'amusing'
p2142
aS'fare'
p2143
aS'enormous'
p2144
aS'sums'
p2145
aS'plate'
p2146
aS'run'
p2147
aS'complaint'
p2148
aS'whom'
p2149
aS'sony'
p2150
aS'regret'
p2151
aS'parties'
p2152
aS'sometimes'
p2153
aS'vicious'
p2154
aS'mundane'
p2155
aS'aspects'
p2156
aS'employees'
p2157
aS'assigned'
p2158
aS'lunch'
p2159
aS'partners'
p2160
aS'style'
p2161
aS'overtime'
p2162
aS'solidarity'
p2163
aS'letting'
p2164
aS'young'
p2165
aS'employee'
p2166
aS'responsibility'
p2167
aS'frustrating'
p2168
aS'science'
p2169
aS'ultimately'
p2170
aS'lesson'
p2171
aS'fired'
p2172
aS'committed'
p2173
aS'social'
p2174
aS'crime'
p2175
aS'appointment'
p2176
aS'venerable'
p2177
aS'never'
p2178
aS'certainly'
p2179
aS'learned'
p2180
aS'something'
p2181
aS'ms.'
p2182
aS'deputy'
p2183
aS'editorial'
p2184
aS'features'
p2185
aS'corners'
p2186
aS'globe'
p2187
aS'becoming'
p2188
aS'tobacco'
p2189
aS'smoke'
p2190
aS'singapore'
p2191
aS'entering'
p2192
aS'restaurants'
p2193
aS'stores'
p2194
aS'sports'
p2195
aS'centers'
p2196
aS'clubs'
p2197
aS'exempt'
p2198
aS'smoking'
p2199
aS'bars'
p2200
aS'except'
p2201
aS'hours'
p2202
aS'bans'
p2203
aS'theaters'
p2204
aS'elevators'
p2205
aS'hospitals'
p2206
aS'fast-food'
p2207
aS'prime'
p2208
aS'kuala'
p2209
aS'lumpur'
p2210
aS'urged'
p2211
aS'visiting'
p2212
aS'restricts'
p2213
aS'designated'
p2214
aS'indicates'
p2215
aS'consumers'
p2216
aS'carried'
p2217
aS'backer'
p2218
aS'spielvogel'
p2219
aS'bates'
p2220
aS'colony'
p2221
aS'feel'
p2222
aS'pressured'
p2223
aS'surveyed'
p2224
aS'identified'
p2225
aS'one-third'
p2226
aS'great'
p2227
aS'deal'
p2228
aS'stress'
p2229
aS'cabinet'
p2230
aS'endorsed'
p2231
aS'proposal'
p2232
aS'build'
p2233
aS'center'
p2234
aS'central'
p2235
aS'plaza'
p2236
aS'balked'
p2237
aS'conditions'
p2238
aS'undertaking'
p2239
aS'necessary'
p2240
aS'arafat'
p2241
aS'olympic'
p2242
aS'asking'
p2243
aS'palestinian'
p2244
aS'liberation'
p2245
aS'membership'
p2246
aS'renewed'
p2247
aS'application'
p2248
aS'plo'
p2249
aS'organizations'
p2250
aS'win'
p2251
aS'health'
p2252
aS'tourism'
p2253
aS'beijing'
p2254
aS'chinese'
p2255
aS'aids'
p2256
aS'sex'
p2257
aS'daily'
p2258
aS'disease'
p2259
aS'hospital'
p2260
aS'tests'
p2261
aS'confirmed'
p2262
aS'family'
p2263
aS'tested'
p2264
aS'newspaper'
p2265
aS'chaotic'
p2266
aS'life'
p2267
aS'polish'
p2268
aS'charges'
p2269
aS'gas'
p2270
aS'line'
p2271
aS'compensate'
p2272
aS'coal'
p2273
aS'establishing'
p2274
aS'diplomatic'
p2275
aS'poland'
p2276
aS'loans'
p2277
aS'financially'
p2278
aS'strapped'
p2279
aS'warsaw'
p2280
aS'victory'
p2281
aS'environmentalists'
p2282
aS'hungary'
p2283
aS'terminated'
p2284
aS'multibillion-dollar'
p2285
aS'river'
p2286
aS'dam'
p2287
aS'czechoslovakia'
p2288
aS'ending'
p2289
aS'authorized'
p2290
aS'modify'
p2291
aS'damage'
p2292
aS'planned'
p2293
aS'ca'
p2294
aS'operated'
p2295
aS'solely'
p2296
aS'peak'
p2297
aS'periods'
p2298
aS'painting'
p2299
aS'stockholm'
p2300
aS'painted'
p2301
aS'oils'
p2302
aS'playwright'
p2303
aS'couples'
p2304
aS'statistics'
p2305
aS'debentures'
p2306
aS'due'
p2307
aS'bond'
p2308
aS'warrants'
p2309
aS'toronto-based'
p2310
aS'real'
p2311
aS'estate'
p2312
aS'warrant'
p2313
aS'holder'
p2314
aS'par'
p2315
aS'accrued'
p2316
aS'date'
p2317
aS'underwriters'
p2318
aS'dominion'
p2319
aS'actor'
p2320
aS'lane'
p2321
aS'charlie'
p2322
aS'steve'
p2323
aS'martin'
p2324
aS'laid'
p2325
aS'claim'
p2326
aS'writer'
p2327
aS'tramp'
p2328
aS'film'
p2329
aS'student'
p2330
aS'campus'
p2331
aS'shot'
p2332
aS'black-and-white'
p2333
aS'artist'
p2334
aS'streets'
p2335
aS'revived'
p2336
aS'sidewalk'
p2337
aS'stories'
p2338
aS'piece'
p2339
aS'contained'
p2340
aS'dialogue'
p2341
aS'homeless'
p2342
aS'person'
p2343
aS'really'
p2344
aS'silent'
p2345
aS'marc'
p2346
aS'friend'
p2347
aS'earns'
p2348
aS'living'
p2349
aS'playing'
p2350
aS'double'
p2351
aS'classical'
p2352
aS'music'
p2353
aS'prepared'
p2354
aS'exciting'
p2355
aS'score'
p2356
aS'thinking'
p2357
aS'feeling'
p2358
aS'precisely'
p2359
aS'words'
p2360
aS'takes'
p2361
aS'highly'
p2362
aS'view'
p2363
aS'lovely'
p2364
aS'black'
p2365
aS'bill'
p2366
aS'seem'
p2367
aS'benign'
p2368
aS'women'
p2369
aS'walk'
p2370
aS'purpose'
p2371
aS'hangs'
p2372
aS'greenwich'
p2373
aS'village'
p2374
aS'strip'
p2375
aS'avenue'
p2376
aS'crack'
p2377
aS'selling'
p2378
aS'four-year-old'
p2379
aS'box'
p2380
aS'routine'
p2381
aS'spends'
p2382
aS'night'
p2383
aS'returns'
p2384
aS'calls'
p2385
aS'competing'
p2386
aS'given'
p2387
aS'blind'
p2388
aS'girl'
p2389
aS'cure'
p2390
aS'charge'
p2391
aS'returning'
p2392
aS'murdered'
p2393
aS'mother'
p2394
aS'child'
p2395
aS'turns'
p2396
aS'blessing'
p2397
aS'sense'
p2398
aS'serious'
p2399
aS'mission'
p2400
aS'stakes'
p2401
aS'woman'
p2402
aS'children'
p2403
aS'shop'
p2404
aS'expensive'
p2405
aS'apartment'
p2406
aS'strongly'
p2407
aS'camera'
p2408
aS'final'
p2409
aS'existence'
p2410
aS'ends'
p2411
aS'sound'
p2412
aS'rough'
p2413
aS'beaten'
p2414
aS'voices'
p2415
aS'french'
p2416
aS'managed'
p2417
aS'weird'
p2418
aS'achievement'
p2419
aS'harsh'
p2420
aS'brilliant'
p2421
aS'picture'
p2422
aS'character'
p2423
aS'viewed'
p2424
aS'sympathetic'
p2425
aS'historical'
p2426
aS'significance'
p2427
aS'executed'
p2428
aS'germans'
p2429
aS'thousands'
p2430
aS'resistance'
p2431
aS'needed'
p2432
aS'enabled'
p2433
aS'cocoa'
p2434
aS'job'
p2435
aS'killed'
p2436
aS'client'
p2437
aS'husband'
p2438
aS'openly'
p2439
aS'presented'
p2440
aS'nice'
p2441
aS'deserve'
p2442
aS'recommend'
p2443
aS'confused'
p2444
aS'mexican'
p2445
aS'revolution'
p2446
aS'taken'
p2447
aS'endless'
p2448
aS'scenes'
p2449
aS'fighting'
p2450
aS'eating'
p2451
aS'drinking'
p2452
aS'mention'
p2453
aS'movies'
p2454
aS'bright'
p2455
aS'spot'
p2456
aS'peck'
p2457
aS'loose'
p2458
aS'energetic'
p2459
aS'portrayal'
p2460
aS'die'
p2461
aS'video'
p2462
aS'tip'
p2463
aS'seeing'
p2464
aS'look'
p2465
aS'boeing'
p2466
aS'discussing'
p2467
aS'regular'
p2468
aS'possibly'
p2469
aS'larger'
p2470
aS'discussions'
p2471
aS'stages'
p2472
aS'specific'
p2473
aS'seattle'
p2474
aS'industries'
p2475
aS'mitsubishi'
p2476
aS'fuji'
p2477
aS'sections'
p2478
aS'accounting'
p2479
aS'aircraft'
p2480
aS'press'
p2481
aS'speculated'
p2482
aS'contribution'
p2483
aS'goes'
p2484
aS'ahead'
p2485
aS'plane'
p2486
aS'hit'
p2487
aS'mid-1990s'
p2488
aS'negative'
p2489
aS'secondary'
p2490
aS'campaigns'
p2491
aS'event'
p2492
aS'irony'
p2493
aS'attack'
p2494
aS'commercial'
p2495
aS'getting'
p2496
aS'presidential'
p2497
aS'campaign'
p2498
aS'election'
p2499
aS'scattered'
p2500
aS'across'
p2501
aS'ads'
p2502
aS'fears'
p2503
aS'empty'
p2504
aS'issues'
p2505
aS'era'
p2506
aS'content'
p2507
aS'politics'
p2508
aS'art'
p2509
aS'stage'
p2510
aS'consultant'
p2511
aS'your'
p2512
aS'tv'
p2513
aS'needs'
p2514
aS'bold'
p2515
aS'entertaining'
p2516
aS'means'
p2517
aS'fights'
p2518
aS'commercials'
p2519
aS'tone'
p2520
aS'elections'
p2521
aS'jersey'
p2522
aS'virginia'
p2523
aS'screen'
p2524
aS'tight'
p2525
aS'dinkins'
p2526
aS'candidate'
p2527
aS'income'
p2528
aS'straight'
p2529
aS'voice'
p2530
aS'republican'
p2531
aS'giuliani'
p2532
aS'roger'
p2533
aS'master'
p2534
aS'gets'
p2535
aS'contributions'
p2536
aS'accurately'
p2537
aS'links'
p2538
aS'insurance'
p2539
aS'convicted'
p2540
aS'phony'
p2541
aS'wait'
p2542
aS'caught'
p2543
aS'nasty'
p2544
aS'corruption'
p2545
aS'simply'
p2546
aS'exist'
p2547
aS'consultants'
p2548
aS'finally'
p2549
aS'shows'
p2550
aS'distorted'
p2551
aS'photos'
p2552
aS'politicians'
p2553
aS'compare'
p2554
aS'candidates'
p2555
aS'banning'
p2556
aS'bullets'
p2557
aS'opposed'
p2558
aS'pro-choice'
p2559
aS'choose'
p2560
aS'telling'
p2561
aS'truth'
p2562
aS'everybody'
p2563
aS'nobody'
p2564
aS'classic'
p2565
aS'situation'
p2566
aS'accurate'
p2567
aS'fail'
p2568
aS'insists'
p2569
aS'voluntarily'
p2570
aS'admitted'
p2571
aS'oversight'
p2572
aS'secret'
p2573
aS'refused'
p2574
aS'matching'
p2575
aS'incomplete'
p2576
aS'errors'
p2577
aS'know'
p2578
aS'peter'
p2579
aS'powers'
p2580
aS'deceptive'
p2581
aS'side'
p2582
aS'argues'
p2583
aS'knows'
p2584
aS'reservations'
p2585
aS'gov.'
p2586
aS'wilder'
p2587
aS'gubernatorial'
p2588
aS'battle'
p2589
aS'marshall'
p2590
aS'coleman'
p2591
aS'abortion'
p2592
aS'agree'
p2593
aS'tour'
p2594
aS'de'
p2595
aS'flag'
p2596
aS'tradition'
p2597
aS'freedom'
p2598
aS'liberty'
p2599
aS'generations'
p2600
aS'jefferson'
p2601
aS'wanted'
p2602
aS'rape'
p2603
aS'incest'
p2604
aS'denies'
p2605
aS'dynamics'
p2606
aS'attorney'
p2607
aS'series'
p2608
aS'advertisements'
p2609
aS'created'
p2610
aS'bob'
p2611
aS'goodman'
p2612
aS'shake'
p2613
aS'attracted'
p2614
aS'featured'
p2615
aS'suggested'
p2616
aS'courtroom'
p2617
aS'introduced'
p2618
aS'victims'
p2619
aS'younger'
p2620
aS'lawyers'
p2621
aS'accused'
p2622
aS'tried'
p2623
aS'pass'
p2624
aS'legislative'
p2625
aS'technique'
p2626
aS'lawmakers'
p2627
aS'grown'
p2628
aS'tired'
p2629
aS'gotten'
p2630
aS'scientist'
p2631
aS'mary'
p2632
aS'devote'
p2633
aS'remainder'
p2634
aS'season'
p2635
aS'positive'
p2636
aS'truce'
p2637
aS'lasted'
p2638
aS'stations'
p2639
aS'carrying'
p2640
aS'featuring'
p2641
aS'himself'
p2642
aS'questions'
p2643
aS'attacks'
p2644
aS'rep.'
p2645
aS'florio'
p2646
aS'aired'
p2647
aS'photograph'
p2648
aS'jim'
p2649
aS'courter'
p2650
aS'remember'
p2651
aS'female'
p2652
aS'mean'
p2653
aS'pictures'
p2654
aS'focus'
p2655
aS'hazardous'
p2656
aS'waste'
p2657
aS'neighbors'
p2658
aS'suing'
p2659
aS'fraud'
p2660
aS'nose'
p2661
aS'grows'
p2662
aS'involved'
p2663
aS'cry'
p2664
aS'responded'
p2665
aS'photographs'
p2666
aS'lying'
p2667
aS'asks'
p2668
aS'barrel'
p2669
aS'land'
p2670
aS'heating'
p2671
aS'pollution'
p2672
aS'environment'
p2673
aS'devastating'
p2674
aS'credibility'
p2675
aS'route'
p2676
aS're-election'
p2677
aS'rout'
p2678
aS'democrat'
p2679
aS'gop'
p2680
aS'nelson'
p2681
aS'rockefeller'
p2682
aS'appeared'
p2683
aS'chicago'
p2684
aS'friday'
p2685
aS'quoted'
p2686
aS'aug.'
p2687
aS'southeast'
p2688
aS'region'
p2689
aS'toward'
p2690
aS'interviews'
p2691
aS'suggest'
p2692
aS'cooperation'
p2693
aS'asian'
p2694
aS'pursued'
p2695
aS'fits'
p2696
aS'starts'
p2697
aS'domination'
p2698
aS'fresh'
p2699
aS'policy'
p2700
aS'flow'
p2701
aS'motion'
p2702
aS'economies'
p2703
aS'tripled'
p2704
aS'commitments'
p2705
aS'steep'
p2706
aS'assistance'
p2707
aS'pumping'
p2708
aS'wages'
p2709
aS'forcing'
p2710
aS'sites'
p2711
aS'known'
p2712
aS'contributing'
p2713
aS'influence'
p2714
aS'subordinate'
p2715
aS'spur'
p2716
aS'military'
p2717
aS'fearful'
p2718
aS'falling'
p2719
aS'budget'
p2720
aS'constraints'
p2721
aS'encourages'
p2722
aS'burdens'
p2723
aS'ground'
p2724
aS'coming'
p2725
aS'decade'
p2726
aS'comes'
p2727
aS'swelling'
p2728
aS'evolution'
p2729
aS'concentrated'
p2730
aS'1990s'
p2731
aS'spurred'
p2732
aS'plants'
p2733
aS'accommodate'
p2734
aS'decisions'
p2735
aS'lender'
p2736
aS'california'
p2737
aS'graduate'
p2738
aS'parallel'
p2739
aS'approach'
p2740
aS'sectors'
p2741
aS'specialist'
p2742
aS'east'
p2743
aS'wilson'
p2744
aS'princeton'
p2745
aS'indonesia'
p2746
aS'effect'
p2747
aS'pull'
p2748
aS'integrated'
p2749
aS'closer'
p2750
aS'ministers'
p2751
aS'discuss'
p2752
aS'regional'
p2753
aS'transportation'
p2754
aS'telecommunications'
p2755
aS'participants'
p2756
aS'zealand'
p2757
aS'speech'
p2758
aS'baker'
p2759
aS'intention'
p2760
aS'taking'
p2761
aS'shape'
p2762
aS'friends'
p2763
aS'crucial'
p2764
aS'designing'
p2765
aS'architecture'
p2766
aS'difficult'
p2767
aS'dominance'
p2768
aS'flows'
p2769
aS'remains'
p2770
aS'optimism'
p2771
aS'convey'
p2772
aS'caution'
p2773
aS'understanding'
p2774
aS'functions'
p2775
aS'attitude'
p2776
aS'net'
p2777
aS'gain'
p2778
aS'everyone'
p2779
aS'step'
p2780
aS'ease'
p2781
aS'security'
p2782
aS'uncertainty'
p2783
aS'leases'
p2784
aS'bases'
p2785
aS'troop'
p2786
aS'regard'
p2787
aS'desirable'
p2788
aS'try'
p2789
aS'lee'
p2790
aS'pennsylvania'
p2791
aS'rice'
p2792
aS'hardly'
p2793
aS'eyes'
p2794
aS'comprehensive'
p2795
aS'test'
p2796
aS'basic'
p2797
aS'skills'
p2798
aS'ninth'
p2799
aS'greenville'
p2800
aS'spotted'
p2801
aS'seen'
p2802
aS'cheating'
p2803
aS'notes'
p2804
aS'profession'
p2805
aS'germany'
p2806
aS'surrendered'
p2807
aS'passed'
p2808
aS'forms'
p2809
aS'word'
p2810
aS'matched'
p2811
aS'answers'
p2812
aS'section'
p2813
aS'protest'
p2814
aS'my'
p2815
aS'teacher'
p2816
aS'ok'
p2817
aS'me'
p2818
aS'nancy'
p2819
aS'yeargin'
p2820
aS'students'
p2821
aS'parents'
p2822
aS'confronted'
p2823
aS'examination'
p2824
aS'geography'
p2825
aS'classes'
p2826
aS'gone'
p2827
aS'display'
p2828
aS'prosecuted'
p2829
aS'unusual'
p2830
aS'carolina'
p2831
aS'breach'
p2832
aS'pleaded'
p2833
aS'guilty'
p2834
aS'alternative'
p2835
aS'jail'
p2836
aS'partly'
p2837
aS'won'
p2838
aS'inspired'
p2839
aS'teach'
p2840
aS'wake'
p2841
aS'anger'
p2842
aS'colleagues'
p2843
aS'defended'
p2844
aS'treated'
p2845
aS'stunned'
p2846
aS'nature'
p2847
aS'actions'
p2848
aS'light'
p2849
aS'dark'
p2850
aS'reform'
p2851
aS'teachers'
p2852
aS'testing'
p2853
aS'enhanced'
p2854
aS'temptation'
p2855
aS'statute'
p2856
aS'violated'
p2857
aS'enforce'
p2858
aS'provisions'
p2859
aS'laws'
p2860
aS'alleged'
p2861
aS'bolster'
p2862
aS'scores'
p2863
aS'bonus'
p2864
aS'education'
p2865
aS'depended'
p2866
aS'ability'
p2867
aS'incredible'
p2868
aS'pressure'
p2869
aS'walt'
p2870
aS'educators'
p2871
aS'wrongdoing'
p2872
aS'n.m.'
p2873
aS'concluded'
p2874
aS'outright'
p2875
aS'standardized'
p2876
aS'greatly'
p2877
aS'inflated'
p2878
aS'widespread'
p2879
aS'surfaced'
p2880
aS'states'
p2881
aS'suspects'
p2882
aS'adult'
p2883
aS'wrong'
p2884
aS'ones'
p2885
aS'statewide'
p2886
aS'numerous'
p2887
aS'practices'
p2888
aS'booklets'
p2889
aS'classroom'
p2890
aS'instruction'
p2891
aS'booming'
p2892
aS'scoring'
p2893
aS'learning'
p2894
aS'nothing'
p2895
aS'sophisticated'
p2896
aS'academic'
p2897
aS'telegraph'
p2898
aS'precise'
p2899
aS'concentrate'
p2900
aS'county'
p2901
aS'district'
p2902
aS'experts'
p2903
aS'promotions'
p2904
aS'entire'
p2905
aS'districts'
p2906
aS'extra'
p2907
aS'lab'
p2908
aS'grants'
p2909
aS'projects'
p2910
aS'reforms'
p2911
aS'posts'
p2912
aS'lowest'
p2913
aS'sat'
p2914
aS'primary'
p2915
aS'critics'
p2916
aS'stressing'
p2917
aS'worst'
p2918
aS'administrators'
p2919
aS'seriously'
p2920
aS'allegations'
p2921
aS'foundation'
p2922
aS'unfair'
p2923
aS'worries'
p2924
aS'abuse'
p2925
aS'keeping'
p2926
aS'track'
p2927
aS'preparation'
p2928
aS'textile'
p2929
aS'educated'
p2930
aS'governors'
p2931
aS'nobel'
p2932
aS'prize'
p2933
aS'winning'
p2934
aS'actress'
p2935
aS'1980s'
p2936
aS'glory'
p2937
aS'faded'
p2938
aS'yellow'
p2939
aS'bricks'
p2940
aS'broad'
p2941
aS'violence'
p2942
aS'gangs'
p2943
aS'kids'
p2944
aS'linda'
p2945
aS'ward'
p2946
aS'awful'
p2947
aS'programs'
p2948
aS'seventh'
p2949
aS'immediate'
p2950
aS'predecessor'
p2951
aS'suffered'
p2952
aS'nervous'
p2953
aS'breakdown'
p2954
aS'prior'
p2955
aS'term'
p2956
aS'death'
p2957
aS'halls'
p2958
aS'trouble'
p2959
aS'serving'
p2960
aS'evenly'
p2961
aS'split'
p2962
aS'elite'
p2963
aS'neighborhoods'
p2964
aS'blacks'
p2965
aS'inner'
p2966
aS'resolved'
p2967
aS'clean'
p2968
aS'faculty'
p2969
aS'restore'
p2970
aS'safety'
p2971
aS'behalf'
p2972
aS'overall'
p2973
aS'educational'
p2974
aS'funding'
p2975
aS'ambitions'
p2976
aS'reformers'
p2977
aS'dismissal'
p2978
aS'loved'
p2979
aS'things'
p2980
aS'restructured'
p2981
aS'staff'
p2982
aS'struggled'
p2983
aS'fast'
p2984
aS'favorite'
p2985
aS'encouraged'
p2986
aS'taught'
p2987
aS'creation'
p2988
aS'encourage'
p2989
aS'teaching'
p2990
aS'advised'
p2991
aS'cultural'
p2992
aS'chosen'
p2993
aS'lady'
p2994
aS'freshman'
p2995
aS'studying'
p2996
aS'beth'
p2997
aS"'ve"
p2998
aS'green'
p2999
aS'distinguished'
p3000
aS'herself'
p3001
aS'approaches'
p3002
aS'pair'
p3003
aS'prepare'
p3004
aS'furniture'
p3005
aS"'d"
p3006
aS'stands'
p3007
aS'football'
p3008
aS'fellow'
p3009
aS'told'
p3010
aS'pushing'
p3011
aS'deteriorating'
p3012
aS'hearing'
p3013
aS'feared'
p3014
aS'helping'
p3015
aS'earn'
p3016
aS'points'
p3017
aS'source'
p3018
aS'meant'
p3019
aS'meaningful'
p3020
aS'salary'
p3021
aS'third'
p3022
aS'others'
p3023
aS'eager'
p3024
aS'pride'
p3025
aS'elizabeth'
p3026
aS'indeed'
p3027
aS'interested'
p3028
aS'attending'
p3029
aS'returned'
p3030
aS'adequately'
p3031
aS'studies'
p3032
aS'admits'
p3033
aS'mistake'
p3034
aS'correct'
p3035
aS'subjects'
p3036
aS'bottom'
p3037
aS'newspapers'
p3038
aS'mostly'
p3039
aS'prevent'
p3040
aS'badly'
p3041
aS'broke'
p3042
aS'heart'
p3043
aS'whole'
p3044
aS'alive'
p3045
aS'desperately'
p3046
aS'somebody'
p3047
aS'blow'
p3048
aS'advanced'
p3049
aS'pretty'
p3050
aS'joe'
p3051
aS'watson'
p3052
aS'prosecutor'
p3053
aS'concedes'
p3054
aS'adding'
p3055
aS'hands'
p3056
aS'discovered'
p3057
aS'avoid'
p3058
aS'disclosure'
p3059
aS'trial'
p3060
aS'quiet'
p3061
aS'resignation'
p3062
aS'save'
p3063
aS'certificate'
p3064
aS'recalls'
p3065
aS'someone'
p3066
aS'authorities'
p3067
aS'dismissed'
p3068
aS'crowded'
p3069
aS'testify'
p3070
aS'supportive'
p3071
aS'callers'
p3072
aS'radio'
p3073
aS'policies'
p3074
aS'host'
p3075
aS'allowed'
p3076
aS'first-time'
p3077
aS'offenders'
p3078
aS'conviction'
p3079
aS'worthy'
p3080
aS'murder'
p3081
aS'witnesses'
p3082
aS'interviewed'
p3083
aS'crushed'
p3084
aS'explain'
p3085
aS'familiar'
p3086
aS'shirts'
p3087
aS'angry'
p3088
aS'harm'
p3089
aS'damn'
p3090
aS'incident'
p3091
aS'doubt'
p3092
aS'wisdom'
p3093
aS'evaluating'
p3094
aS'realized'
p3095
aS'afraid'
p3096
aS'relieved'
p3097
aS'sentiment'
p3098
aS'favor'
p3099
aS'jury'
p3100
aS'touched'
p3101
aS'slate'
p3102
aS'answer'
p3103
aS'widely'
p3104
aS'roman'
p3105
aS'add'
p3106
aS'parent'
p3107
aS'britain'
p3108
aS'communication'
p3109
aS'parallels'
p3110
aS'mich.'
p3111
aS'gauge'
p3112
aS'eighth'
p3113
aS'grade'
p3114
aS'cat'
p3115
aS'iowa'
p3116
aS'metropolitan'
p3117
aS'arizona'
p3118
aS'florida'
p3119
aS'louisiana'
p3120
aS'maryland'
p3121
aS'tools'
p3122
aS'kean'
p3123
aS'publishes'
p3124
aS'aimed'
p3125
aS'improving'
p3126
aS'referred'
p3127
aS'michigan'
p3128
aS'similarity'
p3129
aS'devised'
p3130
aS'scale'
p3131
aS'measured'
p3132
aS'metric'
p3133
aS'measurement'
p3134
aS'volume'
p3135
aS'pie'
p3136
aS'bar'
p3137
aS'intent'
p3138
aS'knowledge'
p3139
aS'sounds'
p3140
aS'exclusion'
p3141
aS'contains'
p3142
aS'examples'
p3143
aS'matches'
p3144
aS'rick'
p3145
aS'ignoring'
p3146
aS'need'
p3147
aS'format'
p3148
aS'deny'
p3149
aS'publication'
p3150
aS'random'
p3151
aS'advisory'
p3152
aS'represented'
p3153
aS'sacramento'
p3154
aS'loan'
p3155
aS'c.'
p3156
aS's&l'
p3157
aS'offices'
p3158
aS'north'
p3159
aS'services'
p3160
aS'fetal-tissue'
p3161
aS'transplants'
p3162
aS'tissue'
p3163
aS'humans'
p3164
aS'anti-abortionists'
p3165
aS'oppose'
p3166
aS'abortions'
p3167
aS'mason'
p3168
aS'transplant'
p3169
aS'indefinitely'
p3170
aS'wo'
p3171
aS'stop'
p3172
aS'privately'
p3173
aS'funded'
p3174
aS'federally'
p3175
aS'involve'
p3176
aS'hhs'
p3177
aS'louis'
p3178
aS'sullivan'
p3179
aS'letter'
p3180
aS'acting'
p3181
aS'institutes'
p3182
aS'threatened'
p3183
aS'controversy'
p3184
aS'implications'
p3185
aS'brain'
p3186
aS'patient'
p3187
aS'suffering'
p3188
aS'scientific'
p3189
aS'ethical'
p3190
aS'majority'
p3191
aS'panel'
p3192
aS'recommended'
p3193
aS'carefully'
p3194
aS'controlled'
p3195
aS'anti-abortion'
p3196
aS'dispute'
p3197
aS'hampered'
p3198
aS'administration'
p3199
aS'recruit'
p3200
aS'prominent'
p3201
aS'doctors'
p3202
aS'fill'
p3203
aS'prestigious'
p3204
aS'helm'
p3205
aS'nih'
p3206
aS'withdrawn'
p3207
aS'names'
p3208
aS'consideration'
p3209
aS'views'
p3210
aS'antonio'
p3211
aS'novello'
p3212
aS'serve'
p3213
aS'surgeon'
p3214
aS'reportedly'
p3215
aS'assured'
p3216
aS'opposes'
p3217
aS'charged'
p3218
aS'imposing'
p3219
aS'ideological'
p3220
aS'moves'
p3221
aS'judgments'
p3222
aS'applications'
p3223
aS'associate'
p3224
aS'dean'
p3225
aS'yale'
p3226
aS'debate'
p3227
aS'mechanism'
p3228
aS'exists'
p3229
aS'middle'
p3230
aS'conducting'
p3231
aS'warns'
p3232
aS'discourage'
p3233
aS'climate'
p3234
aS'visible'
p3235
aS'foundations'
p3236
aS'fronts'
p3237
aS'damaged'
p3238
aS'genes'
p3239
aS'cause'
p3240
aS'syndrome'
p3241
aS'mental'
p3242
aS'summary'
p3243
aS'interstate'
p3244
aS'over-the-counter'
p3245
aS'slightly'
p3246
aS'lackluster'
p3247
aS'turnover'
p3248
aS'busiest'
p3249
aS'averaged'
p3250
aS'roughly'
p3251
aS'biggest'
p3252
aS'gained'
p3253
aS'modestly'
p3254
aS'tracks'
p3255
aS'connecticut'
p3256
aS'trust'
p3257
aS'regions'
p3258
aS'merge'
p3259
aS'massachusetts'
p3260
aS'merged'
p3261
aS'traders'
p3262
aS'real-estate'
p3263
aS'takeover'
p3264
aS'targets'
p3265
aS'speculators'
p3266
aS'anticipating'
p3267
aS'approve'
p3268
aS'permitting'
p3269
aS'immediately'
p3270
aS'water'
p3271
aS'saw'
p3272
aS'uptick'
p3273
aS'trader'
p3274
aS'otc'
p3275
aS'bancorp'
p3276
aS'expires'
p3277
aS'ed'
p3278
aS'fared'
p3279
aS'constitution'
p3280
aS'signed'
p3281
aS'merger'
p3282
aS'l.p.'
p3283
aS'london-based'
p3284
aS'third-quarter'
p3285
aS'pretax'
p3286
aS'mobile'
p3287
aS'dan'
p3288
aS'one-time'
p3289
aS'substantially'
p3290
aS'losses'
p3291
aS'associated'
p3292
aS'core'
p3293
aS'assuming'
p3294
aS'dramatic'
p3295
aS'achieve'
p3296
aS'weisfield'
p3297
aS'ratners'
p3298
aS'definitive'
p3299
aS'jaguar'
p3300
aS'heritage'
p3301
aS'media'
p3302
aS'acquiring'
p3303
aS'pop'
p3304
aS'swap'
p3305
aS'tumbled'
p3306
aS'rally'
p3307
aS'lost'
p3308
aS'restaurant'
p3309
aS'operator'
p3310
aS'redeemed'
p3311
aS'resolve'
p3312
aS'burt'
p3313
aS'sugarman'
p3314
aS'trotter'
p3315
aS'sci'
p3316
aS'slipped'
p3317
aS'ala.'
p3318
aS'fiscal'
p3319
aS'quarter'
p3320
aS'sept.'
p3321
aS'year-earlier'
p3322
aS'criminal'
p3323
aS'detailed'
p3324
aS'warnings'
p3325
aS'attorneys'
p3326
aS'cities'
p3327
aS'outcry'
p3328
aS'organized'
p3329
aS'protected'
p3330
aS'privilege'
p3331
aS'irs'
p3332
aS'stem'
p3333
aS'receives'
p3334
aS'customer'
p3335
aS'transactions'
p3336
aS'payment'
p3337
aS'document'
p3338
aS'failure'
p3339
aS'punishable'
p3340
aS'felony'
p3341
aS'prison'
p3342
aS'argued'
p3343
aS'wish'
p3344
aS'citing'
p3345
aS'rarely'
p3346
aS'acted'
p3347
aS'witness'
p3348
aS'neal'
p3349
aS'miami'
p3350
aS'dozens'
p3351
aS'letters'
p3352
aS'sent'
p3353
aS'certified'
p3354
aS'mail'
p3355
aS'drug'
p3356
aS'individuals'
p3357
aS'necessarily'
p3358
aS'hire'
p3359
aS'circumstances'
p3360
aS'retained'
p3361
aS'filling'
p3362
aS'spark'
p3363
aS'formed'
p3364
aS'gerald'
p3365
aS'delegates'
p3366
aS'resolution'
p3367
aS'requirement'
p3368
aS'aba'
p3369
aS'grand'
p3370
aS'prohibited'
p3371
aS'ethics'
p3372
aS'disclosing'
p3373
aS'committing'
p3374
aS'justice'
p3375
aS'taxpayers'
p3376
aS'notice'
p3377
aS'moderate'
p3378
aS'stance'
p3379
aS'christopher'
p3380
aS'detroit'
p3381
aS'submit'
p3382
aS'initiated'
p3383
aS'dating'
p3384
aS'permission'
p3385
aS'obtained'
p3386
aS'develop'
p3387
aS'sending'
p3388
aS'relating'
p3389
aS'confidential'
p3390
aS'judicial'
p3391
aS'salaries'
p3392
aS'victim'
p3393
aS'judges'
p3394
aS'lucrative'
p3395
aS'fanfare'
p3396
aS'ramirez'
p3397
aS'calif'
p3398
aS'san'
p3399
aS'francisco'
p3400
aS'refusal'
p3401
aS'couple'
p3402
aS'professional'
p3403
aS'accountants'
p3404
aS'eye'
p3405
aS'sudden'
p3406
aS'sum'
p3407
aS'litigation'
p3408
aS'detail'
p3409
aS'high-priced'
p3410
aS'troubles'
p3411
aS'laughing'
p3412
aS'trudeau'
p3413
aS'guild'
p3414
aS'america'
p3415
aS'alleging'
p3416
aS'mounted'
p3417
aS'punish'
p3418
aS'crossing'
p3419
aS'picket'
p3420
aS'involves'
p3421
aS'productions'
p3422
aS'member'
p3423
aS'employed'
p3424
aS'lawsuit'
p3425
aS'illegally'
p3426
aS'reviewing'
p3427
aS'suit'
p3428
aS'disciplinary'
p3429
aS'k.'
p3430
aS'consists'
p3431
aS'mainly'
p3432
aS'threats'
p3433
aS'punishment'
p3434
aS'damages'
p3435
aS'seeks'
p3436
aS'preventing'
p3437
aS'adopted'
p3438
aS'prohibits'
p3439
aS'title'
p3440
aS'x'
p3441
aS'assist'
p3442
aS'obtaining'
p3443
aS'counseling'
p3444
aS'activities'
p3445
aS'promote'
p3446
aS'advocate'
p3447
aS'opinion'
p3448
aS'restrictions'
p3449
aS'violate'
p3450
aS'care'
p3451
aS'limits'
p3452
aS'pregnant'
p3453
aS'inquiry'
p3454
aS'clears'
p3455
aS'bias'
p3456
aS'comments'
p3457
aS'homosexual'
p3458
aS'dallas'
p3459
aS'jack'
p3460
aS'sparked'
p3461
aS'remarks'
p3462
aS'december'
p3463
aS'sentencing'
p3464
aS'defendant'
p3465
aS'killing'
p3466
aS'park'
p3467
aS'referring'
p3468
aS'picking'
p3469
aS'boys'
p3470
aS'murray'
p3471
aS'appointed'
p3472
aS'fairness'
p3473
aS'commenting'
p3474
aS'judiciary'
p3475
aS'impose'
p3476
aS'gaf'
p3477
aS'opening'
p3478
aS'arguments'
p3479
aS'manhattan'
p3480
aS'lowe'
p3481
aS'indictment'
p3482
aS'wayne'
p3483
aS'n.j.'
p3484
aS'specialty'
p3485
aS'sherwin'
p3486
aS'attempting'
p3487
aS'manipulate'
p3488
aS'carbide'
p3489
aS'trials'
p3490
aS'switching'
p3491
aS'prosecution'
p3492
aS'affair'
p3493
aS'mayer'
p3494
aS'brown'
p3495
aS'oliver'
p3496
aS'd.c.'
p3497
aS'specialize'
p3498
aS'white-collar'
p3499
aS'served'
p3500
aS'narcotics'
p3501
aS'tire'
p3502
aS'rubber'
p3503
aS'principle'
p3504
aS'albany'
p3505
aS'ga.'
p3506
aS'inc'
p3507
aS'consist'
p3508
aS'square'
p3509
aS'feet'
p3510
aS'acres'
p3511
aS'bids'
p3512
aS'leaders'
p3513
aS'statement'
p3514
aS'pricing'
p3515
aS'equivalent'
p3516
aS'penny'
p3517
aS'municipal'
p3518
aS'no.'
p3519
aS'alone'
p3520
aS'competitors'
p3521
aS'auctions'
p3522
aS'summoned'
p3523
aS'sure'
p3524
aS'understood'
p3525
aS'fair'
p3526
aS'investigating'
p3527
aS'violations'
p3528
aS'packed'
p3529
aS'headquarters'
p3530
aS'contrary'
p3531
aS'sorry'
p3532
aS'embarrassing'
p3533
aS'situations'
p3534
aS'reputation'
p3535
aS'profits'
p3536
aS'benefits'
p3537
aS'accepted'
p3538
aS'normal'
p3539
aS'accepting'
p3540
aS'gifts'
p3541
aS'businessmen'
p3542
aS'fire'
p3543
aS'fueled'
p3544
aS'behavior'
p3545
aS'complaints'
p3546
aS'touch'
p3547
aS'foreigners'
p3548
aS'complain'
p3549
aS'limited'
p3550
aS'access'
p3551
aS'procurement'
p3552
aS'unfairly'
p3553
aS'undercut'
p3554
aS'slashing'
p3555
aS'semiconductors'
p3556
aS'hurt'
p3557
aS'minus'
p3558
aS'factor'
p3559
aS'hiroshima'
p3560
aS'design'
p3561
aS'waterworks'
p3562
aS'library'
p3563
aS'municipalities'
p3564
aS'emerge'
p3565
aS'insisted'
p3566
aS'contacted'
p3567
aS'federation'
p3568
aS'papers'
p3569
aS'atlantic'
p3570
aS'publications'
p3571
aS'community'
p3572
aS'cbs'
p3573
aS'communications'
p3574
aS'retaining'
p3575
aS'operates'
p3576
aS'retail'
p3577
aS'furukawa'
p3578
aS'machinery'
p3579
aS'locally'
p3580
aS'german'
p3581
aS'structural'
p3582
aS'productivity'
p3583
aS'thrifts'
p3584
aS'compiled'
p3585
aS'monitor'
p3586
aS'b'
p3587
aS'minimum'
p3588
aS'lsi'
p3589
aS'logic'
p3590
aS'surprise'
p3591
aS'semiconductor'
p3592
aS'lagging'
p3593
aS'billings'
p3594
aS'cover'
p3595
aS'extended'
p3596
aS'weakness'
p3597
aS'switch'
p3598
aS'techniques'
p3599
aS'wilfred'
p3600
aS'midyear'
p3601
aS'phase'
p3602
aS'oldest'
p3603
aS'appropriate'
p3604
aS'counting'
p3605
aS'extraordinary'
p3606
aS'older'
p3607
aS'silicon'
p3608
aS'converting'
p3609
aS'santa'
p3610
aS'clara'
p3611
aS'calif.'
p3612
aS'facility'
p3613
aS'speculate'
p3614
aS'additions'
p3615
aS'aggressively'
p3616
aS'suddenly'
p3617
aS'poorly'
p3618
aS'positioned'
p3619
aS'stark'
p3620
aS'robertson'
p3621
aS'dead'
p3622
aS'facing'
p3623
aS'traditionally'
p3624
aS'buyers'
p3625
aS'jitters'
p3626
aS'lake'
p3627
aS'n.j'
p3628
aS'g.'
p3629
aS'buoyed'
p3630
aS'cautiously'
p3631
aS'bearish'
p3632
aS'kept'
p3633
aS'plunging'
p3634
aS'locked'
p3635
aS'narrow'
p3636
aS'offset'
p3637
aS'resulting'
p3638
aS'jay'
p3639
aS'insight'
p3640
aS'reasons'
p3641
aS'lure'
p3642
aS'driving'
p3643
aS'tom'
p3644
aS'banque'
p3645
aS'paribas'
p3646
aS'convinced'
p3647
aS'erode'
p3648
aS'sterling'
p3649
aS'thursday'
p3650
aS'madison'
p3651
aS'los'
p3652
aS'angeles'
p3653
aS'solid'
p3654
aS'wave'
p3655
aS'waiting'
p3656
aS'wings'
p3657
aS'contends'
p3658
aS'perception'
p3659
aS'columbia'
p3660
aS'entertainment'
p3661
aS'cites'
p3662
aS'knight'
p3663
aS'undisclosed'
p3664
aS'georgia-pacific'
p3665
aS'northern'
p3666
aS'nekoosa'
p3667
aS'10-year'
p3668
aS'valued'
p3669
aS'speculation'
p3670
aS'unclear'
p3671
aS'rolled'
p3672
aS'prospect'
p3673
aS'lock'
p3674
aS'high-yield'
p3675
aS'merely'
p3676
aS'drifted'
p3677
aS'release'
p3678
aS'expectations'
p3679
aS'minimal'
p3680
aS'commodity'
p3681
aS'ounce'
p3682
aS'ounces'
p3683
aS'cosby'
p3684
aS'ratings'
p3685
aS'nbc'
p3686
aS'debut'
p3687
aS'keeps'
p3688
aS'viewers'
p3689
aS'network'
p3690
aS'affiliates'
p3691
aS'air'
p3692
aS'considerably'
p3693
aS'episodes'
p3694
aS'distributor'
p3695
aS'viacom'
p3696
aS'losing'
p3697
aS'persuade'
p3698
aS'tactics'
p3699
aS'willing'
p3700
aS'negotiate'
p3701
aS'midwest'
p3702
aS'tell'
p3703
aS"'ll"
p3704
aS'flooded'
p3705
aS'networks'
p3706
aS'station'
p3707
aS'a.c.'
p3708
aS'nielsen'
p3709
aS'r.i.'
p3710
aS'n.c.'
p3711
aS'louisville'
p3712
aS'ky.'
p3713
aS'renew'
p3714
aS'dick'
p3715
aS'disappointment'
p3716
aS'pleased'
p3717
aS'adds'
p3718
aS'disappointed'
p3719
aS'uncomfortable'
p3720
aS'frankly'
p3721
aS'quite'
p3722
aS'georgia'
p3723
aS'officially'
p3724
aS'atlanta-based'
p3725
aS'conventional'
p3726
aS'life-insurance'
p3727
aS'magazines'
p3728
aS'articles'
p3729
aS'survive'
p3730
aS'downright'
p3731
aS'garbage'
p3732
aS'billed'
p3733
aS'practical'
p3734
aS'founded'
p3735
aS'brooklyn'
p3736
aS'n.y.'
p3737
aS'entrepreneur'
p3738
aS'promise'
p3739
aS'crisis'
p3740
aS'combines'
p3741
aS'pieces'
p3742
aS'topics'
p3743
aS'happens'
p3744
aS'flush'
p3745
aS'toilet'
p3746
aS'editors'
p3747
aS'considerable'
p3748
aS'supermarket'
p3749
aS'identify'
p3750
aS'guys'
p3751
aS'feature'
p3752
aS'standpoint'
p3753
aS'would-be'
p3754
aS'campbell'
p3755
aS'soup'
p3756
aS'microwave'
p3757
aS'premiere'
p3758
aS'column'
p3759
aS'pointing'
p3760
aS'packaging'
p3761
aS'foam'
p3762
aS'plastic'
p3763
aS'landfill'
p3764
aS'monster'
p3765
aS'wrote'
p3766
aS'practicing'
p3767
aS'opportunity'
p3768
aS'modifications'
p3769
aS'printed'
p3770
aS'portrayed'
p3771
aS'surprisingly'
p3772
aS'turning'
p3773
aS'mike'
p3774
aS'ddb'
p3775
aS'needham'
p3776
aS'economics'
p3777
aS'big-time'
p3778
aS'handful'
p3779
aS'coors'
p3780
aS'spend'
p3781
aS'relied'
p3782
aS'haul'
p3783
aS'print'
p3784
aS'publisher'
p3785
aS'initially'
p3786
aS'subscription'
p3787
aS'revenues'
p3788
aS'yearly'
p3789
aS'recycled'
p3790
aS'scared'
p3791
aS'replies'
p3792
aS'sleep'
p3793
aS'interpublic'
p3794
aS'programming'
p3795
aS'expanded'
p3796
aS'original'
p3797
aS'largely'
p3798
aS'supplier'
p3799
aS'philadelphia'
p3800
aS'palmer'
p3801
aS'handled'
p3802
aS'baltimore'
p3803
aS'at&t'
p3804
aS'fax'
p3805
aS'ogilvy'
p3806
aS'mather'
p3807
aS'wpp'
p3808
aS'rubicam'
p3809
aS'enterprise'
p3810
aS'breaks'
p3811
aS'st.'
p3812
aS'specializes'
p3813
aS'pitches'
p3814
aS'pittsburgh'
p3815
aS'sea'
p3816
aS'containers'
p3817
aS'buy-back'
p3818
aS'pressed'
p3819
aS'temple'
p3820
aS'hamilton'
p3821
aS'shipping'
p3822
aS'proceeds'
p3823
aS'apiece'
p3824
aS'hostile'
p3825
aS'ag'
p3826
aS'sweetened'
p3827
aS'approximately'
p3828
aS'allocated'
p3829
aS'leaving'
p3830
aS'flexibility'
p3831
aS'raises'
p3832
aS'criticized'
p3833
aS'conditional'
p3834
aS'device'
p3835
aS'superior'
p3836
aS'asset'
p3837
aS'converted'
p3838
aS'possibility'
p3839
aS'subsidiaries'
p3840
aS'mired'
p3841
aS'barred'
p3842
aS'reaction'
p3843
aS'responding'
p3844
aS'advocates'
p3845
aS'steps'
p3846
aS'vans'
p3847
aS'requirements'
p3848
aS'automobiles'
p3849
aS'requiring'
p3850
aS'minivans'
p3851
aS'belts'
p3852
aS'rear'
p3853
aS'model'
p3854
aS'samuel'
p3855
aS'skinner'
p3856
aS'represents'
p3857
aS'ongoing'
p3858
aS'vehicle'
p3859
aS'extension'
p3860
aS'car'
p3861
aS'equipped'
p3862
aS'surprising'
p3863
aS'urging'
p3864
aS'actually'
p3865
aS'cargo'
p3866
aS'therefore'
p3867
aS'luck'
p3868
aS'reagan'
p3869
aS'fairly'
p3870
aS'address'
p3871
aS'chuck'
p3872
aS'highway'
p3873
aS'sen.'
p3874
aS'praised'
p3875
aS'noting'
p3876
aS'crashes'
p3877
aS'bags'
p3878
aS'automatic'
p3879
aS'weighing'
p3880
aS'pounds'
p3881
aS'withstand'
p3882
aS'weight'
p3883
aS'depressed'
p3884
aS'inches'
p3885
aS'shoulder'
p3886
aS'installed'
p3887
aS'deadline'
p3888
aS'engineer'
p3889
aS'ford'
p3890
aS'crew'
p3891
aS'rail'
p3892
aS'autos'
p3893
aS'heights'
p3894
aS'ill'
p3895
aS'railroad'
p3896
aS'sir'
p3897
aS'walters'
p3898
aS'petroleum'
p3899
aS'joins'
p3900
aS'cement'
p3901
aS'circle'
p3902
aS'formal'
p3903
aS'longstanding'
p3904
aS'opposition'
p3905
aS'within'
p3906
aS'dow'
p3907
aS'jones'
p3908
aS'options'
p3909
aS'conversations'
p3910
aS'interesting'
p3911
aS'prevailing'
p3912
aS'passage'
p3913
aS'slump'
p3914
aS'lay'
p3915
aS'altogether'
p3916
aS'employment'
p3917
aS'exclusively'
p3918
aS'leasing'
p3919
aS'reduced'
p3920
aS'payable'
p3921
aS'jan.'
p3922
aS'hair'
p3923
aS'accessories'
p3924
aS'cosmetic'
p3925
aS'year-ago'
p3926
aS'anti-takeover'
p3927
aS'henderson'
p3928
aS'u.k.'
p3929
aS'metals'
p3930
aS'succeeding'
p3931
aS'ian'
p3932
aS'butler'
p3933
aS'retiring'
p3934
aS'cent'
p3935
aS'redemption'
p3936
aS'upon'
p3937
aS'warren'
p3938
aS'leap'
p3939
aS'wine'
p3940
aS'tag'
p3941
aS'cabernet'
p3942
aS'shops'
p3943
aS'experience'
p3944
aS'declared'
p3945
aS'diamond'
p3946
aS'creek'
p3947
aS'weighed'
p3948
aS'bottle'
p3949
aS'fastest'
p3950
aS'segments'
p3951
aS'category'
p3952
aS'wines'
p3953
aS'quality'
p3954
aS'perceived'
p3955
aS'stable'
p3956
aS'la'
p3957
aS'magnitude'
p3958
aS'flashy'
p3959
aS'releases'
p3960
aS'lion'
p3961
aS'bottles'
p3962
aS'smallest'
p3963
aS'lighter'
p3964
aS'vintage'
p3965
aS'prestige'
p3966
aS'barrier'
p3967
aS'salon'
p3968
aS'soared'
p3969
aS'steal'
p3970
aS'precious'
p3971
aS'anywhere'
p3972
aS'angelo'
p3973
aS'command'
p3974
aS'larry'
p3975
aS'shapiro'
p3976
aS'happening'
p3977
aS'scarce'
p3978
aS'exhausted'
p3979
aS'newer'
p3980
aS'bargain'
p3981
aS'perfectly'
p3982
aS'yielded'
p3983
aS'owner'
p3984
aS'al'
p3985
aS'originally'
p3986
aS'retailer'
p3987
aS'wholesale'
p3988
aS'merchants'
p3989
aS'check'
p3990
aS'responses'
p3991
aS'yes'
p3992
aS'shipped'
p3993
aS'spread'
p3994
aS'thin'
p3995
aS'retailers'
p3996
aS'suburban'
p3997
aS'opinions'
p3998
aS'thinks'
p3999
aS'dramatically'
p4000
aS'wins'
p4001
aS'talked'
p4002
aS'excited'
p4003
aS'collection'
p4004
aS'sort'
p4005
aS'dunn'
p4006
aS'appeal'
p4007
aS'explains'
p4008
aS'rapidly'
p4009
aS'knowledgeable'
p4010
aS'orleans'
p4011
aS'equally'
p4012
aS'movement'
p4013
aS'forced'
p4014
aS'push'
p4015
aS'lowering'
p4016
aS'beautiful'
p4017
aS'ideas'
p4018
aS'walking'
p4019
aS'door'
p4020
aS'moment'
p4021
aS'looming'
p4022
aS'holidays'
p4023
aS'free-lance'
p4024
aS'upward'
p4025
aS'richmond'
p4026
aS'posting'
p4027
aS'fourth'
p4028
aS'agrees'
p4029
aS'kansas'
p4030
aS'stated'
p4031
aS'objective'
p4032
aS'hopefully'
p4033
aS'downward'
p4034
aS'expecting'
p4035
aS'easier'
p4036
aS'plunge'
p4037
aS'shown'
p4038
aS'weak'
p4039
aS'slower'
p4040
aS'discretionary'
p4041
aS'halt'
p4042
aS'divided'
p4043
aS'presidents'
p4044
aS'excesses'
p4045
aS'tilt'
p4046
aS'chance'
p4047
aS'mailing'
p4048
aS'exercised'
p4049
aS'hotels'
p4050
aS'exercise'
p4051
aS'merchant'
p4052
aS'steelmaker'
p4053
aS'steelworkers'
p4054
aS'tube'
p4055
aS'expired'
p4056
aS'vote'
p4057
aS'reject'
p4058
aS'pact'
p4059
aS'postponed'
p4060
aS'congressional'
p4061
aS'fails'
p4062
aS'disruption'
p4063
aS'schedule'
p4064
aS'taxpayer'
p4065
aS'nicholas'
p4066
aS'brady'
p4067
aS'redeem'
p4068
aS'maturing'
p4069
aS'refunding'
p4070
aS'three-year'
p4071
aS'auctioned'
p4072
aS'30-year'
p4073
aS'when-issued'
p4074
aS'approves'
p4075
aS'clearing'
p4076
aS'two-year'
p4077
aS'five-year'
p4078
aS'estimates'
p4079
aS'decides'
p4080
aS'aim'
p4081
aS'lancaster'
p4082
aS'foods'
p4083
aS'marketer'
p4084
aS'frozen'
p4085
aS'pasta'
p4086
aS'advantage'
p4087
aS'fractionally'
p4088
aS'finished'
p4089
aS'advancing'
p4090
aS'enthusiasm'
p4091
aS'rushed'
p4092
aS'sight'
p4093
aS'pattern'
p4094
aS'benchmark'
p4095
aS'afternoon'
p4096
aS'mitsui'
p4097
aS'mining'
p4098
aS'eaton'
p4099
aS'sierra'
p4100
aS'supplies'
p4101
aS'harold'
p4102
aS'simmons'
p4103
aS'nl'
p4104
aS'gulf'
p4105
aS'chemicals'
p4106
aS'restructure'
p4107
aS'rebuffed'
p4108
aS'alternatives'
p4109
aS'proposals'
p4110
aS'reviewed'
p4111
aS'regarding'
p4112
aS'eliminated'
p4113
aS'various'
p4114
aS'proof'
p4115
aS'aggressive'
p4116
aS'pit'
p4117
aS'bull'
p4118
aS'morgan'
p4119
aS'stanley'
p4120
aS'valhi'
p4121
aS'two-thirds'
p4122
aS'surprised'
p4123
aS'cited'
p4124
aS'becomes'
p4125
aS'unchanged'
p4126
aS'proposing'
p4127
aS'subordinated'
p4128
aS'junk-bond'
p4129
aS'collapsed'
p4130
aS'likelihood'
p4131
aS'hundred'
p4132
aS'agreeing'
p4133
aS'consent'
p4134
aS'jerry'
p4135
aS'respond'
p4136
aS'solicitation'
p4137
aS'replacing'
p4138
aS'friendly'
p4139
aS'apparently'
p4140
aS'nominal'
p4141
aS'earned'
p4142
aS'licensing'
p4143
aS'representing'
p4144
aS'challenging'
p4145
aS'punitive'
p4146
aS'license'
p4147
aS'elsewhere'
p4148
aS'albert'
p4149
aS'researcher'
p4150
aS'1960s'
p4151
aS'combat'
p4152
aS'licensed'
p4153
aS'criticism'
p4154
aS'acquisitions'
p4155
aS'color'
p4156
aS'disagree'
p4157
aS'removal'
p4158
aS'barriers'
p4159
aS'focusing'
p4160
aS'differences'
p4161
aS'initiative'
p4162
aS'rhetoric'
p4163
aS'signal'
p4164
aS'impending'
p4165
aS'nervousness'
p4166
aS'devoted'
p4167
aS'half-hour'
p4168
aS'briefing'
p4169
aS'journalists'
p4170
aS'notably'
p4171
aS'coca-cola'
p4172
aS'fuel'
p4173
aS'fires'
p4174
aS'publicized'
p4175
aS'boone'
p4176
aS'pickens'
p4177
aS'jr'
p4178
aS'lloyd'
p4179
aS'highlight'
p4180
aS'disproportionate'
p4181
aS'table'
p4182
aS'structures'
p4183
aS'recommendations'
p4184
aS'anxious'
p4185
aS'successful'
p4186
aS'concessions'
p4187
aS'clarify'
p4188
aS'exactly'
p4189
aS'quick'
p4190
aS'crossed'
p4191
aS'smaller'
p4192
aS'controversial'
p4193
aS'improves'
p4194
aS'provides'
p4195
aS'candela'
p4196
aS'laser'
p4197
aS'high-tech'
p4198
aS'sights'
p4199
aS'tiny'
p4200
aS'joint-venture'
p4201
aS'bureaucratic'
p4202
aS'secured'
p4203
aS'kidney'
p4204
aS'stones'
p4205
aS'skin'
p4206
aS'count'
p4207
aS'promising'
p4208
aS'frequently'
p4209
aS'putting'
p4210
aS'financed'
p4211
aS'corporations'
p4212
aS'minority'
p4213
aS'heightened'
p4214
aS'acceleration'
p4215
aS'deals'
p4216
aS'feed'
p4217
aS'glass'
p4218
aS'catch'
p4219
aS'fancy'
p4220
aS'strategic'
p4221
aS'fit'
p4222
aS'va.'
p4223
aS'architectural'
p4224
aS'ronald'
p4225
aS'window'
p4226
aS'merchandise'
p4227
aS'inside'
p4228
aS'counterpart'
p4229
aS'commodities'
p4230
aS'ships'
p4231
aS'u.s.a.'
p4232
aS'houses'
p4233
aS'ventures'
p4234
aS'goal'
p4235
aS'objectives'
p4236
aS'drive'
p4237
aS'basis'
p4238
aS'performed'
p4239
aS'businessman'
p4240
aS'alliance'
p4241
aS'generate'
p4242
aS'extent'
p4243
aS'ai'
p4244
aS'hudson'
p4245
aS'departure'
p4246
aS'maintenance'
p4247
aS'fueling'
p4248
aS'airlines'
p4249
aS'airports'
p4250
aS'omitted'
p4251
aS'duties'
p4252
aS'assumed'
p4253
aS'neighborhood'
p4254
aS'convenient'
p4255
aS'crown'
p4256
aS'package'
p4257
aS'checking'
p4258
aS'safe'
p4259
aS'deposit'
p4260
aS'card'
p4261
aS'installment'
p4262
aS'qualify'
p4263
aS'loyalty'
p4264
aS'competitive'
p4265
aS'deposits'
p4266
aS'packages'
p4267
aS'targeting'
p4268
aS'population'
p4269
aS'anne'
p4270
aS'moore'
p4271
aS'ncnb'
p4272
aS'charlotte'
p4273
aS'connections'
p4274
aS'adults'
p4275
aS'starting'
p4276
aS'throws'
p4277
aS'saving'
p4278
aS'memphis'
p4279
aS'tenn.'
p4280
aS'edge'
p4281
aS'crowd'
p4282
aS'borrowed'
p4283
aS'aiming'
p4284
aS'elderly'
p4285
aS'segment'
p4286
aS'stepped'
p4287
aS'macdonald'
p4288
aS'barnett'
p4289
aS'fla.'
p4290
aS'seniors'
p4291
aS'styles'
p4292
aS'create'
p4293
aS'branches'
p4294
aS'athletic'
p4295
aS'travel'
p4296
aS'active'
p4297
aS'games'
p4298
aS'panama'
p4299
aS'wells'
p4300
aS'fargo'
p4301
aS'travelers'
p4302
aS'checks'
p4303
aS'fee'
p4304
aS'slew'
p4305
aS'promoting'
p4306
aS'margins'
p4307
aS'profitable'
p4308
aS'mid-1970s'
p4309
aS'emphasis'
p4310
aS'switched'
p4311
aS'ways'
p4312
aS'enabling'
p4313
aS'analyze'
p4314
aS'deregulation'
p4315
aS'1970s'
p4316
aS'cds'
p4317
aS'certificates'
p4318
aS'staggering'
p4319
aS'bigger'
p4320
aS'market-share'
p4321
aS'banker'
p4322
aS'worrying'
p4323
aS'unions'
p4324
aS'scrambling'
p4325
aS'define'
p4326
aS'n.c'
p4327
aS'attracting'
p4328
aS'costly'
p4329
aS'rewarding'
p4330
aS'bulk'
p4331
aS'audience'
p4332
aS'loyal'
p4333
aS'borrowers'
p4334
aS'personnel'
p4335
aS'training'
p4336
aS'promotional'
p4337
aS'jacob'
p4338
aS'demanding'
p4339
aS'tailored'
p4340
aS'moving'
p4341
aS'direction'
p4342
aS'alvin'
p4343
aS'realize'
p4344
aS'iras'
p4345
aS'registration'
p4346
aS'chandler'
p4347
aS'ariz.'
p4348
aS'exercisable'
p4349
aS'develops'
p4350
aS'low-cost'
p4351
aS'peripheral'
p4352
aS'chevrolet'
p4353
aS'vacation'
p4354
aS'send'
p4355
aS'lasting'
p4356
aS'savings-and-loan'
p4357
aS'foster'
p4358
aS'ailing'
p4359
aS'demise'
p4360
aS'healthy'
p4361
aS'performing'
p4362
aS'institution'
p4363
aS'gift'
p4364
aS'doors'
p4365
aS'felt'
p4366
aS'lewis'
p4367
aS'builds'
p4368
aS'confidence'
p4369
aS'critical'
p4370
aS'delay'
p4371
aS'worse'
p4372
aS'sagging'
p4373
aS'morale'
p4374
aS'mercantile'
p4375
aS'breaker'
p4376
aS'stemming'
p4377
aS'phelan'
p4378
aS'subcommittee'
p4379
aS'halts'
p4380
aS'collar'
p4381
aS'arguing'
p4382
aS'limit'
p4383
aS'merc'
p4384
aS'one-hour'
p4385
aS'stock-index'
p4386
aS'futures'
p4387
aS's&p'
p4388
aS'p.m'
p4389
aS'execute'
p4390
aS'trades'
p4391
aS'tumultuous'
p4392
aS'industrials'
p4393
aS'skidded'
p4394
aS'hitting'
p4395
aS'remained'
p4396
aS'session'
p4397
aS'existing'
p4398
aS'equal'
p4399
aS'leo'
p4400
aS'panic'
p4401
aS'reopened'
p4402
aS'subsequent'
p4403
aS'flood'
p4404
aS'knocked'
p4405
aS'intermediate'
p4406
aS'floor'
p4407
aS'shortly'
p4408
aS'maximum'
p4409
aS'one-day'
p4410
aS'minutes'
p4411
aS'aides'
p4412
aS'congressmen'
p4413
aS'executing'
p4414
aS'expressed'
p4415
aS'volatility'
p4416
aS'program-trading'
p4417
aS'comfortable'
p4418
aS'capitol'
p4419
aS'legislators'
p4420
aS'shut'
p4421
aS'volatile'
p4422
aS'breeden'
p4423
aS'breakers'
p4424
aS'trigger'
p4425
aS'vague'
p4426
aS'angered'
p4427
aS'edward'
p4428
aS'markey'
p4429
aS'beyond'
p4430
aS'done'
p4431
aS'sensitive'
p4432
aS'happy'
p4433
aS'writing'
p4434
aS'discussed'
p4435
aS'congressman'
p4436
aS'attended'
p4437
aS'dingell'
p4438
aS'let'
p4439
aS'sources'
p4440
aS'regulated'
p4441
aS'agriculture'
p4442
aS'committees'
p4443
aS'rural'
p4444
aS'ancient'
p4445
aS'stone'
p4446
aS'church'
p4447
aS'bells'
p4448
aS'tower'
p4449
aS'calling'
p4450
aS'angels'
p4451
aS'ropes'
p4452
aS'sounded'
p4453
aS'modern'
p4454
aS'enjoying'
p4455
aS'cool'
p4456
aS'autumn'
p4457
aS'band'
p4458
aS'ringers'
p4459
aS'herald'
p4460
aS'sunday'
p4461
aS'ringer'
p4462
aS'hammond'
p4463
aS'live'
p4464
aS'youngsters'
p4465
aS'ring'
p4466
aS'worker'
p4467
aS'train'
p4468
aS'youth'
p4469
aS'ranks'
p4470
aS'nationwide'
p4471
aS'continental'
p4472
aS'invented'
p4473
aS'physical'
p4474
aS'weigh'
p4475
aS'ton'
p4476
aS'concentration'
p4477
aS'proper'
p4478
aS'bell'
p4479
aS'methods'
p4480
aS'ten'
p4481
aS'pulling'
p4482
aS'disappears'
p4483
aS'hole'
p4484
aS'ringing'
p4485
aS'chamber'
p4486
aS'speaks'
p4487
aS'totally'
p4488
aS'absorbed'
p4489
aS'vision'
p4490
aS'thus'
p4491
aS'pulls'
p4492
aS'wheels'
p4493
aS'skilled'
p4494
aS'well-known'
p4495
aS'novelist'
p4496
aS'passion'
p4497
aS'finds'
p4498
aS'satisfaction'
p4499
aS'filled'
p4500
aS'bit'
p4501
aS'stays'
p4502
aS'stuck'
p4503
aS'sweat'
p4504
aS'sit'
p4505
aS'steadily'
p4506
aS'pressing'
p4507
aS'attend'
p4508
aS'rev.'
p4509
aS'vicar'
p4510
aS'promptly'
p4511
aS'premises'
p4512
aS'eight'
p4513
aS'attendance'
p4514
aS'refuses'
p4515
aS'reopen'
p4516
aS'wound'
p4517
aS'nearby'
p4518
aS'fault'
p4519
aS'crunch'
p4520
aS'bang'
p4521
aS'obvious'
p4522
aS'exit'
p4523
aS'feelings'
p4524
aS'drawn'
p4525
aS'council'
p4526
aS'aims'
p4527
aS'baldwin'
p4528
aS'speak'
p4529
aS'colleges'
p4530
aS'publish'
p4531
aS'entitled'
p4532
aS'attacking'
p4533
aS'inner-city'
p4534
aS'attract'
p4535
aS'lucky'
p4536
aS'everywhere'
p4537
aS'sole'
p4538
aS'weekly'
p4539
aS'signing'
p4540
aS'balanced'
p4541
aS'frequency'
p4542
aS'tea'
p4543
aS'observed'
p4544
aS'dressed'
p4545
aS'unsettled'
p4546
aS'comfort'
p4547
aS'predictable'
p4548
aS'payouts'
p4549
aS'warn'
p4550
aS'strongest'
p4551
aS'stock-market'
p4552
aS'trap'
p4553
aS'bernstein'
p4554
aS'merrill'
p4555
aS'lynch'
p4556
aS'widow'
p4557
aS'reference'
p4558
aS'males'
p4559
aS'kill'
p4560
aS'boesel'
p4561
aS'invariably'
p4562
aS'environments'
p4563
aS'risen'
p4564
aS'cyclical'
p4565
aS'500-stock'
p4566
aS'sliding'
p4567
aS'watchers'
p4568
aS'double-digit'
p4569
aS'trends'
p4570
aS'advances'
p4571
aS'relative'
p4572
aS'sustained'
p4573
aS'rebound'
p4574
aS'exception'
p4575
aS'w.'
p4576
aS'hint'
p4577
aS'escaped'
p4578
aS'debacle'
p4579
aS'sharp'
p4580
aS'troublesome'
p4581
aS'manner'
p4582
aS'cigna'
p4583
aS'insurer'
p4584
aS'einhorn'
p4585
aS'weakening'
p4586
aS'painewebber'
p4587
aS'forecasting'
p4588
aS'argument'
p4589
aS'declare'
p4590
aS'weaken'
p4591
aS'bulls'
p4592
aS'expenditures'
p4593
aS'tally'
p4594
aS'basically'
p4595
aS'trailed'
p4596
aS'deliver'
p4597
aS'appreciation'
p4598
aS'vs.'
p4599
aS'element'
p4600
aS'outlook'
p4601
aS'upside'
p4602
aS'page-one'
p4603
aS'plight'
p4604
aS'alexander'
p4605
aS'graham'
p4606
aS'supposedly'
p4607
aS'replace'
p4608
aS'hubbard'
p4609
aS'wealthy'
p4610
aS'sued'
p4611
aS'infringed'
p4612
aS'established'
p4613
aS'enter'
p4614
aS'beverly'
p4615
aS'nbi'
p4616
aS'quarters'
p4617
aS'kingdom'
p4618
aS'commit'
p4619
aS'lacked'
p4620
aS'hired'
p4621
aS'nixon'
p4622
aS'historic'
p4623
aS'spoke'
p4624
aS'length'
p4625
aS'nowhere'
p4626
aS'easing'
p4627
aS'relationship'
p4628
aS'bloody'
p4629
aS'pro-democracy'
p4630
aS'demonstrators'
p4631
aS'massacre'
p4632
aS'normally'
p4633
aS'peaceful'
p4634
aS'phrase'
p4635
aS'socialist'
p4636
aS'capitalist'
p4637
aS'tension'
p4638
aS'evident'
p4639
aS'friendship'
p4640
aS'reminded'
p4641
aS'assault'
p4642
aS'crackdown'
p4643
aS'ordering'
p4644
aS'respect'
p4645
aS'fashion'
p4646
aS'killings'
p4647
aS'demonstrations'
p4648
aS'deng'
p4649
aS'speaking'
p4650
aS'deeply'
p4651
aS'turmoil'
p4652
aS'occurred'
p4653
aS'exchanges'
p4654
aS'deteriorated'
p4655
aS'greatest'
p4656
aS'dissident'
p4657
aS'wife'
p4658
aS'refuge'
p4659
aS'embassy'
p4660
aS'suspension'
p4661
aS'traveling'
p4662
aS'citizen'
p4663
aS'scowcroft'
p4664
aS'saturday'
p4665
aS'participation'
p4666
aS'pulled'
p4667
aS'acknowledge'
p4668
aS'welcome'
p4669
aS'contacts'
p4670
aS'borders'
p4671
aS'sdi'
p4672
aS'weapon'
p4673
aS'shoot'
p4674
aS'minor'
p4675
aS'premier'
p4676
aS'hoped'
p4677
aS'guards'
p4678
aS'guns'
p4679
aS'arrived'
p4680
aS'blocks'
p4681
aS'ambassador'
p4682
aS'residence'
p4683
aS'discarded'
p4684
aS'arms'
p4685
aS'contingent'
p4686
aS'soldiers'
p4687
aS'protests'
p4688
aS'diplomats'
p4689
aS'loaded'
p4690
aS'graduates'
p4691
aS'tree'
p4692
aS'passing'
p4693
aS'buck'
p4694
aS'everything'
p4695
aS'volunteer'
p4696
aS'unfortunately'
p4697
aS'compensation'
p4698
aS'impression'
p4699
aS'harder'
p4700
aS'visited'
p4701
aS'images'
p4702
aS'changing'
p4703
aS'perceptions'
p4704
aS'accept'
p4705
aS'barbara'
p4706
aS'continually'
p4707
aS'liberals'
p4708
aS'klein'
p4709
aS'puts'
p4710
aS'professionals'
p4711
aS'favorable'
p4712
aS'voters'
p4713
aS'spouse'
p4714
aS'assumption'
p4715
aS'perspective'
p4716
aS'defined'
p4717
aS'birmingham'
p4718
aS'disciplined'
p4719
aS'expelled'
p4720
aS'nasd'
p4721
aS'fined'
p4722
aS'fernando'
p4723
aS'marina'
p4724
aS'del'
p4725
aS'rey'
p4726
aS'listing'
p4727
aS'henry'
p4728
aS'i.'
p4729
aS'improper'
p4730
aS'unpublished'
p4731
aS'settlement'
p4732
aS'admitting'
p4733
aS'denying'
p4734
aS'consented'
p4735
aS'connection'
p4736
aS'crane'
p4737
aS'mount'
p4738
aS'glenn'
p4739
aS'escrow'
p4740
aS'inaccurate'
p4741
aS'principals'
p4742
aS'dell'
p4743
aS'eugene'
p4744
aS'island'
p4745
aS'wash.'
p4746
aS'implication'
p4747
aS'inappropriate'
p4748
aS'timing'
p4749
aS'del.'
p4750
aS'n.'
p4751
aS'differ'
p4752
aS'meaning'
p4753
aS'express'
p4754
aS'timely'
p4755
aS'requests'
p4756
aS'davis'
p4757
aS'jeffrey'
p4758
aS'gerard'
p4759
aS'stewart'
p4760
aS'amounted'
p4761
aS'parking'
p4762
aS'ticket'
p4763
aS'complaining'
p4764
aS'sizable'
p4765
aS'anybody'
p4766
aS'rolling'
p4767
aS'stuart'
p4768
aS'breaking'
p4769
aS'agents'
p4770
aS'compliance'
p4771
aS'stupid'
p4772
aS'mistakes'
p4773
aS'actively'
p4774
aS'engaged'
p4775
aS'blocked'
p4776
aS'computer-driven'
p4777
aS'plays'
p4778
aS'hurdles'
p4779
aS'resist'
p4780
aS'furor'
p4781
aS'abroad'
p4782
aS'arbitrage'
p4783
aS'exploit'
p4784
aS'imagine'
p4785
aS'racing'
p4786
aS'cope'
p4787
aS'utsumi'
p4788
aS'osaka'
p4789
aS'wary'
p4790
aS'forgotten'
p4791
aS'drove'
p4792
aS'operators'
p4793
aS'suspend'
p4794
aS'maybe'
p4795
aS'tightened'
p4796
aS'salomon'
p4797
aS'chunk'
p4798
aS's.'
p4799
aS'futures-related'
p4800
aS'strategies'
p4801
aS'liquid'
p4802
aS'impact'
p4803
aS'index-arbitrage'
p4804
aS'serves'
p4805
aS'counter'
p4806
aS'tapes'
p4807
aS'begins'
p4808
aS'pegged'
p4809
aS'privacy'
p4810
aS'brokerage'
p4811
aS'assurance'
p4812
aS'manages'
p4813
aS'#'
p4814
aS'times-stock'
p4815
aS'100-share'
p4816
aS'option'
p4817
aS'ft-se'
p4818
aS'tenfold'
p4819
aS'compares'
p4820
aS'wage'
p4821
aS'compromise'
p4822
aS'backed'
p4823
aS'proponents'
p4824
aS'hour'
p4825
aS'opponents'
p4826
aS'reflected'
p4827
aS'republicans'
p4828
aS'lifting'
p4829
aS'four-year'
p4830
aS'enacted'
p4831
aS'pat'
p4832
aS'williams'
p4833
aS'acceptance'
p4834
aS'sought'
p4835
aS'adopting'
p4836
aS'nickel'
p4837
aS'lately'
p4838
aS'touted'
p4839
aS'democrats'
p4840
aS'fought'
p4841
aS'insistence'
p4842
aS'employers'
p4843
aS'restriction'
p4844
aS'covers'
p4845
aS'impossible'
p4846
aS'elimination'
p4847
aS'zenith'
p4848
aS'navy'
p4849
aS'rockwell'
p4850
aS'replacement'
p4851
aS'navigation'
p4852
aS'intelligence'
p4853
aS'hahn'
p4854
aS'mode'
p4855
aS'teddy'
p4856
aS'unsolicited'
p4857
aS'cold'
p4858
aS'faced'
p4859
aS'negotiated'
p4860
aS'negotiating'
p4861
aS'surrender'
p4862
aS'tough'
p4863
aS'completion'
p4864
aS'opens'
p4865
aS'implies'
p4866
aS'dilemma'
p4867
aS'observers'
p4868
aS'pulp'
p4869
aS'consensus'
p4870
aS'insiders'
p4871
aS'onto'
p4872
aS'knew'
p4873
aS'picked'
p4874
aS'careful'
p4875
aS'universities'
p4876
aS'willingness'
p4877
aS'arrest'
p4878
aS'protesters'
p4879
aS'impressed'
p4880
aS'joining'
p4881
aS'administrator'
p4882
aS'transition'
p4883
aS'swiftly'
p4884
aS'raw'
p4885
aS'son'
p4886
aS'beta'
p4887
aS'kentucky'
p4888
aS'physics'
p4889
aS'photographic'
p4890
aS'engineered'
p4891
aS'turnaround'
p4892
aS'inherited'
p4893
aS'repair'
p4894
aS'remodeling'
p4895
aS'new-home'
p4896
aS'cycles'
p4897
aS'formula'
p4898
aS'reins'
p4899
aS'attributes'
p4900
aS'philosophy'
p4901
aS'concentrating'
p4902
aS'diversified'
p4903
aS'impressive'
p4904
aS'diversification'
p4905
aS'match'
p4906
aS'high-quality'
p4907
aS'forest-products'
p4908
aS'waters'
p4909
aS'house-senate'
p4910
aS'portions'
p4911
aS'relies'
p4912
aS'guarantees'
p4913
aS'initiatives'
p4914
aS'contrasts'
p4915
aS'provoked'
p4916
aS'veto'
p4917
aS'confined'
p4918
aS'shaping'
p4919
aS'appropriations'
p4920
aS'decisive'
p4921
aS'pentagon'
p4922
aS'planning'
p4923
aS'portion'
p4924
aS'warming'
p4925
aS'african'
p4926
aS'elephant'
p4927
aS'draws'
p4928
aS'variety'
p4929
aS'amendments'
p4930
aS'exemption'
p4931
aS'intriguing'
p4932
aS'struggle'
p4933
aS'sugar'
p4934
aS'fate'
p4935
aS'quota'
p4936
aS'stripped'
p4937
aS'noriega'
p4938
aS'regime'
p4939
aS'tons'
p4940
aS'growers'
p4941
aS'pound'
p4942
aS'whip'
p4943
aS'gray'
p4944
aS'pa'
p4945
aS'caribbean'
p4946
aS'jamaica'
p4947
aS'conservative'
p4948
aS'basin'
p4949
aS'powerful'
p4950
aS'hawaii'
p4951
aS'inouye'
p4952
aS'allies'
p4953
aS'instructed'
p4954
aS'lobbyist'
p4955
aS'abandon'
p4956
aS'drafted'
p4957
aS'supplemental'
p4958
aS'anti-drug'
p4959
aS'airline'
p4960
aS'flights'
p4961
aS'leadership'
p4962
aS'bounce'
p4963
aS'departments'
p4964
aS'beauty'
p4965
aS'bridges'
p4966
aS'repaired'
p4967
aS'disagreement'
p4968
aS'lose'
p4969
aS'planner'
p4970
aS'prefer'
p4971
aS'install'
p4972
aS'f'
p4973
aS'concrete'
p4974
aS'ind.'
p4975
aS'bridge'
p4976
aS'teaches'
p4977
aS'structure'
p4978
aS'charter'
p4979
aS'oak'
p4980
aS'peninsula'
p4981
aS'upset'
p4982
aS'similarly'
p4983
aS'carrier'
p4984
aS'competes'
p4985
aS'beverage'
p4986
aS'outlets'
p4987
aS'resembles'
p4988
aS'beer'
p4989
aS'hang'
p4990
aS'inventor'
p4991
aS'marvin'
p4992
asS'unknown'
p4993
I0
sS'word2index'
p4994
(dp4995
g3550
I3546
sg3129
I3125
sg4280
I4276
sg55
I51
sg4780
I4776
sg2395
I2391
sg2788
I2784
sg4530
I4526
sg2939
I2935
sg2563
I2559
sg204
I200
sg4219
I4215
sg2814
I2810
sg4110
I4106
sg3793
I3789
sg2694
I2690
sg4193
I4189
sg4412
I4408
sg3431
I3427
sg962
I958
sg3603
I3599
sg1549
I1545
sg3618
I3614
sg3372
I3368
sg683
I679
sg3237
I3233
sg3351
I3347
sg1206
I1202
sg1553
I1549
sg875
I871
sg3951
I3947
sg2920
I2916
sg4773
I4769
sg25
I21
sg4070
I4066
sg529
I525
sg3629
I3625
sg237
I233
sg1604
I1600
sg3532
I3528
sg3025
I3021
sg859
I855
sg4052
I4048
sg4059
I4055
sg3642
I3638
sg2856
I2852
sg4420
I4416
sg166
I162
sg1890
I1886
sg3494
I3490
sg3754
I3750
sg4674
I4670
sg1744
I1740
sg1058
I1054
sg3460
I3456
sg2911
I2907
sg4338
I4334
sg4750
I4746
sg4003
I3999
sg3720
I3716
sg2056
I2052
sg2933
I2929
sg2798
I2794
sg3398
I3394
sg1200
I1196
sg698
I694
sg3654
I3650
sg2732
I2728
sg3602
I3598
sg625
I621
sg2157
I2153
sg3584
I3580
sg4636
I4632
sg4369
I4365
sg4947
I4943
sg4979
I4975
sg2366
I2362
sg329
I325
sg3297
I3293
sg2629
I2625
sg3232
I3228
sg3473
I3469
sg4079
I4075
sg545
I541
sg2720
I2716
sg4719
I4715
sg129
I125
sg1406
I1402
sg3298
I3294
sg2715
I2711
sg1037
I1033
sg653
I649
sg3765
I3761
sg93
I89
sg4081
I4077
sg2577
I2573
sg1538
I1534
sg4910
I4906
sg4189
I4185
sg2414
I2410
sg2027
I2023
sg1184
I1180
sg1829
I1825
sg1009
I1005
sg626
I622
sg786
I782
sg3825
I3821
sg3284
I3280
sg1700
I1696
sg171
I167
sg3799
I3795
sg106
I102
sg2777
I2773
sg754
I750
sg975
I971
sg3436
I3432
sg3010
I3006
sg2742
I2738
sg1341
I1337
sg1731
I1727
sg2069
I2065
sg3545
I3541
sg1011
I1007
sg3244
I3240
sg195
I191
sg1732
I1728
sg1883
I1879
sg64
I60
sg88
I84
sg3870
I3866
sg274
I270
sg1258
I1254
sg4072
I4068
sg3153
I3149
sg3450
I3446
sg299
I295
sg4565
I4561
sg198
I194
sg128
I124
sg3029
I3025
sg411
I407
sg2011
I2007
sg220
I216
sg1013
I1009
sg1716
I1712
sg1367
I1363
sg3146
I3142
sg782
I778
sg1145
I1141
sg555
I551
sg380
I376
sg1643
I1639
sg4836
I4832
sg2096
I2092
sg574
I570
sg3434
I3430
sg4154
I4150
sg4552
I4548
sg3501
I3497
sg2498
I2494
sg271
I267
sg3869
I3865
sg2362
I2358
sg1499
I1495
sg478
I474
sg1552
I1548
sg3773
I3769
sg582
I578
sg4244
I4240
sg1979
I1975
sg210
I206
sg3482
I3478
sg105
I101
sg4826
I4822
sg2065
I2061
sg2803
I2799
sg4827
I4823
sg4624
I4620
sg723
I719
sg2244
I2240
sg2260
I2256
sg957
I953
sg2489
I2485
sg4982
I4978
sg3876
I3872
sg1563
I1559
sg2898
I2894
sg2443
I2439
sg2126
I2122
sg667
I663
sg191
I187
sg513
I509
sg3305
I3301
sg1944
I1940
sg4340
I4336
sg3454
I3450
sg2876
I2872
sg3841
I3837
sg4790
I4786
sg942
I938
sg1755
I1751
sg2541
I2537
sg155
I151
sg4550
I4546
sg2083
I2079
sg3256
I3252
sg4897
I4893
sg1800
I1796
sg2883
I2879
sg2990
I2986
sg4953
I4949
sg2946
I2942
sg1783
I1779
sg1542
I1538
sg4958
I4954
sg2134
I2130
sg2818
I2814
sg36
I32
sg4111
I4107
sg1257
I1253
sg1307
I1303
sg328
I324
sg1797
I1793
sg4697
I4693
sg4593
I4589
sg2454
I2450
sg2506
I2502
sg4972
I4968
sg4728
I4724
sg3788
I3784
sg2815
I2811
sg412
I408
sg4635
I4631
sg4883
I4879
sg14
I10
sg1894
I1890
sg751
I747
sg1086
I1082
sg1260
I1256
sg2917
I2913
sg3176
I3172
sg1697
I1693
sg4083
I4079
sg2402
I2398
sg2773
I2769
sg3427
I3423
sg1134
I1130
sg2176
I2172
sg4237
I4233
sg201
I197
sg4535
I4531
sg3662
I3658
sg796
I792
sg4372
I4368
sg4665
I4661
sg599
I595
sg2019
I2015
sg1937
I1933
sg4296
I4292
sg2292
I2288
sg4777
I4773
sg1100
I1096
sg213
I209
sg569
I565
sg2057
I2053
sg2427
I2423
sg1131
I1127
sg2879
I2875
sg3062
I3058
sg4116
I4112
sg3041
I3037
sg2753
I2749
sg3026
I3022
sg4965
I4961
sg3505
I3501
sg4138
I4134
sg429
I425
sg2154
I2150
sg2908
I2904
sg284
I280
sg4757
I4753
sg182
I178
sg1844
I1840
sg3915
I3911
sg3901
I3897
sg3395
I3391
sg317
I313
sg1270
I1266
sg3020
I3016
sg2739
I2735
sg1443
I1439
sg929
I925
sg3577
I3573
sg791
I787
sg1310
I1306
sg336
I332
sg899
I895
sg1543
I1539
sg3308
I3304
sg110
I106
sg2999
I2995
sg4637
I4633
sg2980
I2976
sg3600
I3596
sg1504
I1500
sg993
I989
sg3940
I3936
sg487
I483
sg4844
I4840
sg3968
I3964
sg2428
I2424
sg1398
I1394
sg2633
I2629
sg629
I625
sg4134
I4130
sg306
I302
sg427
I423
sg476
I472
sg3471
I3467
sg4794
I4790
sg1640
I1636
sg1046
I1042
sg2977
I2973
sg612
I608
sg139
I135
sg2893
I2889
sg2929
I2925
sg4222
I4218
sg2368
I2364
sg1412
I1408
sg4725
I4721
sg1240
I1236
sg3679
I3675
sg3891
I3887
sg1848
I1844
sg2328
I2324
sg1492
I1488
sg3268
I3264
sg1198
I1194
sg4656
I4652
sg4036
I4032
sg2962
I2958
sg537
I533
sg1005
I1001
sg3116
I3112
sg207
I203
sg2203
I2199
sg3597
I3593
sg3102
I3098
sg4259
I4255
sg2932
I2928
sg4521
I4517
sg1510
I1506
sg379
I375
sg177
I173
sg3916
I3912
sg3731
I3727
sg2253
I2249
sg1629
I1625
sg3582
I3578
sg2647
I2643
sg3857
I3853
sg4073
I4069
sg1682
I1678
sg4516
I4512
sg4281
I4277
sg4142
I4138
sg262
I258
sg3872
I3868
sg3381
I3377
sg2044
I2040
sg4460
I4456
sg3362
I3358
sg441
I437
sg1479
I1475
sg2281
I2277
sg3299
I3295
sg983
I979
sg1619
I1615
sg4385
I4381
sg2582
I2578
sg1397
I1393
sg2308
I2304
sg510
I506
sg464
I460
sg1102
I1098
sg2079
I2075
sg2608
I2604
sg4468
I4464
sg4542
I4538
sg718
I714
sg2463
I2459
sg68
I64
sg943
I939
sg4846
I4842
sg3290
I3286
sg2256
I2252
sg4616
I4612
sg3140
I3136
sg4943
I4939
sg3497
I3493
sg264
I260
sg3989
I3985
sg4792
I4788
sg3690
I3686
sg3643
I3639
sg4283
I4279
sg2082
I2078
sg2623
I2619
sg2764
I2760
sg3168
I3164
sg2507
I2503
sg3705
I3701
sg2325
I2321
sg956
I952
sg2556
I2552
sg2050
I2046
sg127
I123
sg888
I884
sg1824
I1820
sg2129
I2125
sg722
I718
sg2680
I2676
sg3959
I3955
sg2922
I2918
sg3118
I3114
sg1019
I1015
sg3216
I3212
sg1593
I1589
sg4917
I4913
sg4990
I4986
sg242
I238
sg3183
I3179
sg2387
I2383
sg675
I671
sg257
I253
sg2491
I2487
sg4696
I4692
sg4981
I4977
sg720
I716
sg4630
I4626
sg3249
I3245
sg3809
I3805
sg4649
I4645
sg2602
I2598
sg3354
I3350
sg4175
I4171
sg4763
I4759
sg2144
I2140
sg2220
I2216
sg2610
I2606
sg2697
I2693
sg4841
I4837
sg2650
I2646
sg368
I364
sg3608
I3604
sg3714
I3710
sg3166
I3162
sg158
I154
sg1681
I1677
sg4316
I4312
sg4618
I4614
sg4341
I4337
sg961
I957
sg4872
I4868
sg4760
I4756
sg4428
I4424
sg997
I993
sg2185
I2181
sg1930
I1926
sg3114
I3110
sg1960
I1956
sg3463
I3459
sg2915
I2911
sg3013
I3009
sg1335
I1331
sg2615
I2611
sg3438
I3434
sg654
I650
sg3663
I3659
sg4254
I4250
sg811
I807
sg4661
I4657
sg989
I985
sg3566
I3562
sg553
I549
sg4983
I4979
sg430
I426
sg4024
I4020
sg3828
I3824
sg2022
I2018
sg2432
I2428
sg343
I339
sg832
I828
sg1748
I1744
sg77
I73
sg866
I862
sg2042
I2038
sg95
I91
sg4735
I4731
sg511
I507
sg886
I882
sg3228
I3224
sg4572
I4568
sg4903
I4899
sg3213
I3209
sg325
I321
sg269
I265
sg1180
I1176
sg3596
I3592
sg3867
I3863
sg227
I223
sg4408
I4404
sg19
I15
sg1813
I1809
sg470
I466
sg3414
I3410
sg725
I721
sg864
I860
sg2745
I2741
sg2433
I2429
sg748
I744
sg254
I250
sg1112
I1108
sg896
I892
sg2826
I2822
sg4650
I4646
sg2426
I2422
sg2322
I2318
sg2358
I2354
sg2296
I2292
sg2421
I2417
sg467
I463
sg4976
I4972
sg4448
I4444
sg4646
I4642
sg4053
I4049
sg4877
I4873
sg1905
I1901
sg169
I165
sg4454
I4450
sg4098
I4094
sg4218
I4214
sg4766
I4762
sg137
I133
sg4582
I4578
sg2802
I2798
sg2367
I2363
sg244
I240
sg1589
I1585
sg1356
I1352
sg3045
I3041
sg382
I378
sg4612
I4608
sg1865
I1861
sg4782
I4778
sg1962
I1958
sg1284
I1280
sg3039
I3035
sg4568
I4564
sg2419
I2415
sg3234
I3230
sg52
I48
sg1638
I1634
sg2070
I2066
sg4906
I4902
sg2412
I2408
sg3193
I3189
sg96
I92
sg4327
I4323
sg2142
I2138
sg1647
I1643
sg1244
I1240
sg2004
I2000
sg3579
I3575
sg1475
I1471
sg303
I299
sg2564
I2560
sg4299
I4295
sg469
I465
sg308
I304
sg4463
I4459
sg3123
I3119
sg4022
I4018
sg4049
I4045
sg1083
I1079
sg1041
I1037
sg2806
I2802
sg1835
I1831
sg3575
I3571
sg708
I704
sg26
I22
sg2429
I2425
sg3412
I3408
sg2757
I2753
sg4221
I4217
sg2216
I2212
sg2964
I2960
sg4957
I4953
sg176
I172
sg2674
I2670
sg2701
I2697
sg1869
I1865
sg3521
I3517
sg3017
I3013
sg3504
I3500
sg3810
I3806
sg2516
I2512
sg1483
I1479
sg950
I946
sg2058
I2054
sg1239
I1235
sg1929
I1925
sg456
I452
sg830
I826
sg3567
I3563
sg1067
I1063
sg4367
I4363
sg661
I657
sg609
I605
sg2586
I2582
sg2289
I2285
sg4815
I4811
sg991
I987
sg3073
I3069
sg2599
I2595
sg1558
I1554
sg2283
I2279
sg4419
I4415
sg4011
I4007
sg3394
I3390
sg840
I836
sg846
I842
sg2314
I2310
sg3085
I3081
sg1675
I1671
sg2423
I2419
sg1641
I1637
sg4295
I4291
sg1529
I1525
sg3101
I3097
sg1823
I1819
sg1798
I1794
sg1846
I1842
sg781
I777
sg4177
I4173
sg2792
I2788
sg4192
I4188
sg2951
I2947
sg1158
I1154
sg707
I703
sg4709
I4705
sg4711
I4707
sg66
I62
sg3681
I3677
sg2137
I2133
sg396
I392
sg2843
I2839
sg1487
I1483
sg3983
I3979
sg3833
I3829
sg3052
I3048
sg3380
I3376
sg414
I410
sg352
I348
sg2544
I2540
sg603
I599
sg4416
I4412
sg1762
I1758
sg3137
I3133
sg229
I225
sg57
I53
sg3675
I3671
sg4693
I4689
sg906
I902
sg4679
I4675
sg1176
I1172
sg1372
I1368
sg4071
I4067
sg2766
I2762
sg278
I274
sg3710
I3706
sg4747
I4743
sg3879
I3875
sg1393
I1389
sg4136
I4132
sg3190
I3186
sg4692
I4688
sg3919
I3915
sg3393
I3389
sg3526
I3522
sg4520
I4516
sg4576
I4572
sg4352
I4348
sg2853
I2849
sg2585
I2581
sg4151
I4147
sg4544
I4540
sg4303
I4299
sg580
I576
sg1265
I1261
sg2471
I2467
sg1360
I1356
sg458
I454
sg2835
I2831
sg1299
I1295
sg1028
I1024
sg1261
I1257
sg103
I99
sg1448
I1444
sg2223
I2219
sg2855
I2851
sg666
I662
sg3332
I3328
sg4680
I4676
sg4698
I4694
sg3771
I3767
sg1994
I1990
sg946
I942
sg4165
I4161
sg2693
I2689
sg4033
I4029
sg4525
I4521
sg2740
I2736
sg236
I232
sg4308
I4304
sg135
I131
sg2178
I2174
sg1192
I1188
sg2087
I2083
sg1667
I1663
sg2847
I2843
sg3171
I3167
sg3341
I3337
sg4655
I4651
sg3779
I3775
sg4039
I4035
sg815
I811
sg548
I544
sg2688
I2684
sg178
I174
sg2140
I2136
sg4243
I4239
sg1942
I1938
sg758
I754
sg1486
I1482
sg512
I508
sg1275
I1271
sg2616
I2612
sg985
I981
sg1317
I1313
sg4970
I4966
sg3495
I3491
sg1391
I1387
sg694
I690
sg3895
I3891
sg2783
I2779
sg2671
I2667
sg915
I911
sg2630
I2626
sg2133
I2129
sg2088
I2084
sg4101
I4097
sg4298
I4294
sg2293
I2289
sg3334
I3330
sg1035
I1031
sg2483
I2479
sg241
I237
sg1460
I1456
sg1924
I1920
sg3673
I3669
sg1190
I1186
sg482
I478
sg2520
I2516
sg2683
I2679
sg437
I433
sg4581
I4577
sg3279
I3275
sg4297
I4293
sg4940
I4936
sg2099
I2095
sg4162
I4158
sg4890
I4886
sg570
I566
sg3257
I3253
sg4664
I4660
sg2219
I2215
sg3192
I3188
sg4529
I4525
sg1616
I1612
sg1939
I1935
sg3226
I3222
sg2781
I2777
sg4268
I4264
sg2668
I2664
sg3024
I3020
sg1488
I1484
sg4452
I4448
sg4396
I4392
sg200
I196
sg557
I553
sg29
I25
sg2716
I2712
sg924
I920
sg4989
I4985
sg1128
I1124
sg342
I338
sg2797
I2793
sg202
I198
sg1474
I1470
sg2364
I2360
sg3898
I3894
sg3817
I3813
sg4671
I4667
sg3386
I3382
sg2267
I2263
sg448
I444
sg1245
I1241
sg1532
I1528
sg4828
I4824
sg4467
I4463
sg523
I519
sg3537
I3533
sg1724
I1720
sg1599
I1595
sg3806
I3802
sg196
I192
sg4533
I4529
sg1204
I1200
sg973
I969
sg4575
I4571
sg2743
I2739
sg3079
I3075
sg1710
I1706
sg3349
I3345
sg2703
I2699
sg4888
I4884
sg3692
I3688
sg606
I602
sg4234
I4230
sg1017
I1013
sg2852
I2848
sg990
I986
sg1312
I1308
sg1103
I1099
sg837
I833
sg1414
I1410
sg3034
I3030
sg460
I456
sg1808
I1804
sg3117
I3113
sg1262
I1258
sg45
I41
sg290
I286
sg83
I79
sg1026
I1022
sg1416
I1412
sg2112
I2108
sg3163
I3159
sg2903
I2899
sg3267
I3263
sg435
I431
sg113
I109
sg2619
I2615
sg2474
I2470
sg1481
I1477
sg863
I859
sg536
I532
sg2628
I2624
sg1621
I1617
sg3962
I3958
sg1345
I1341
sg2692
I2688
sg70
I66
sg4517
I4513
sg4135
I4131
sg1639
I1635
sg3225
I3221
sg3562
I3558
sg3187
I3183
sg2110
I2106
sg4435
I4431
sg4761
I4757
sg1949
I1945
sg1123
I1119
sg857
I853
sg1811
I1807
sg852
I848
sg3206
I3202
sg4623
I4619
sg2190
I2186
sg2931
I2927
sg3154
I3150
sg4980
I4976
sg1879
I1875
sg3892
I3888
sg1450
I1446
sg1219
I1215
sg2090
I2086
sg2646
I2642
sg3131
I3127
sg2040
I2036
sg2717
I2713
sg16
I12
sg3330
I3326
sg3768
I3764
sg1048
I1044
sg266
I262
sg3636
I3632
sg3633
I3629
sg1140
I1136
sg2948
I2944
sg3652
I3648
sg1537
I1533
sg1255
I1251
sg3188
I3184
sg2897
I2893
sg507
I503
sg1983
I1979
sg4583
I4579
sg4879
I4875
sg2394
I2390
sg1760
I1756
sg37
I33
sg590
I586
sg366
I362
sg1572
I1568
sg1914
I1910
sg3998
I3994
sg2448
I2444
sg4699
I4695
sg3548
I3544
sg900
I896
sg1701
I1697
sg3976
I3972
sg2923
I2919
sg1912
I1908
sg2158
I2154
sg2278
I2274
sg3750
I3746
sg1892
I1888
sg318
I314
sg3755
I3751
sg3992
I3988
sg780
I776
sg3931
I3927
sg1061
I1057
sg3055
I3051
sg3625
I3621
sg91
I87
sg1269
I1265
sg2527
I2523
sg315
I311
sg4945
I4941
sg1228
I1224
sg468
I464
sg2612
I2608
sg4288
I4284
sg1752
I1748
sg38
I34
sg1775
I1771
sg3342
I3338
sg3932
I3928
sg3760
I3756
sg74
I70
sg4720
I4716
sg677
I673
sg3886
I3882
sg704
I700
sg3518
I3514
sg4074
I4070
sg4571
I4567
sg1087
I1083
sg4009
I4005
sg928
I924
sg4042
I4038
sg2469
I2465
sg2992
I2988
sg1520
I1516
sg2945
I2941
sg979
I975
sg4423
I4419
sg2059
I2055
sg3049
I3045
sg3280
I3276
sg2901
I2897
sg1501
I1497
sg4722
I4718
sg4364
I4360
sg3235
I3231
sg4362
I4358
sg3491
I3487
sg442
I438
sg3158
I3154
sg869
I865
sg2383
I2379
sg305
I301
sg2782
I2778
sg3678
I3674
sg4334
I4330
sg2607
I2603
sg1490
I1486
sg34
I30
sg952
I948
sg2228
I2224
sg500
I496
sg2982
I2978
sg3601
I3597
sg4256
I4252
sg1769
I1765
sg3622
I3618
sg1365
I1361
sg1242
I1238
sg3422
I3418
sg2499
I2495
sg4842
I4838
sg1678
I1674
sg3563
I3559
sg406
I402
sg2605
I2601
sg2473
I2469
sg349
I345
sg186
I182
sg3037
I3033
sg3539
I3535
sg1970
I1966
sg3457
I3453
sg2713
I2709
sg4382
I4378
sg2243
I2239
sg4483
I4479
sg3523
I3519
sg1539
I1535
sg3846
I3842
sg2041
I2037
sg3293
I3289
sg3277
I3273
sg3440
I3436
sg2515
I2511
sg543
I539
sg3337
I3333
sg1342
I1338
sg3726
I3722
sg4691
I4687
sg1804
I1800
sg1600
I1596
sg4514
I4510
sg550
I546
sg1230
I1226
sg4025
I4021
sg2249
I2245
sg4811
I4807
sg747
I743
sg563
I559
sg145
I141
sg849
I845
sg2644
I2640
sg1583
I1579
sg795
I791
sg4887
I4883
sg3672
I3668
sg779
I775
sg3634
I3630
sg738
I734
sg4960
I4956
sg1030
I1026
sg4096
I4092
sg4506
I4502
sg1534
I1530
sg1357
I1353
sg981
I977
sg4410
I4406
sg2775
I2771
sg932
I928
sg3142
I3138
sg313
I309
sg457
I453
sg1148
I1144
sg3578
I3574
sg1615
I1611
sg2590
I2586
sg2805
I2801
sg3185
I3181
sg1276
I1272
sg4685
I4681
sg403
I399
sg3003
I2999
sg3728
I3724
sg434
I430
sg4541
I4537
sg2731
I2727
sg1651
I1647
sg3530
I3526
sg3947
I3943
sg1871
I1867
sg1220
I1216
sg3415
I3411
sg4282
I4278
sg4286
I4282
sg240
I236
sg1099
I1095
sg522
I518
sg3289
I3285
sg524
I520
sg1533
I1529
sg4850
I4846
sg1234
I1230
sg400
I396
sg887
I883
sg643
I639
sg3180
I3176
sg1684
I1680
sg59
I55
sg1885
I1881
sg3837
I3833
sg144
I140
sg4373
I4369
sg1730
I1726
sg3481
I3477
sg3777
I3773
sg65
I61
sg835
I831
sg2188
I2184
sg4161
I4157
sg3233
I3229
sg1948
I1944
sg658
I654
sg4569
I4565
sg3339
I3335
sg839
I835
sg4285
I4281
sg3621
I3617
sg4241
I4237
sg4573
I4569
sg1248
I1244
sg881
I877
sg1765
I1761
sg43
I39
sg3844
I3840
sg4907
I4903
sg2904
I2900
sg2685
I2681
sg1461
I1457
sg3890
I3886
sg4395
I4391
sg1127
I1123
sg2197
I2193
sg1078
I1074
sg3703
I3699
sg1286
I1282
sg3922
I3918
sg2148
I2144
sg90
I86
sg2472
I2468
sg31
I27
sg1063
I1059
sg3315
I3311
sg4271
I4267
sg1413
I1409
sg947
I943
sg4610
I4606
sg3373
I3369
sg2226
I2222
sg4845
I4841
sg1988
I1984
sg4854
I4850
sg2547
I2543
sg926
I922
sg2479
I2475
sg3397
I3393
sg3847
I3843
sg918
I914
sg4027
I4023
sg4104
I4100
sg3383
I3379
sg147
I143
sg4133
I4129
sg2519
I2515
sg1484
I1480
sg559
I555
sg1772
I1768
sg2320
I2316
sg2067
I2063
sg1289
I1285
sg4186
I4182
sg1056
I1052
sg1595
I1591
sg475
I471
sg3569
I3565
sg2796
I2792
sg194
I190
sg4344
I4340
sg2422
I2418
sg3269
I3265
sg124
I120
sg4034
I4030
sg1439
I1435
sg3591
I3587
sg1212
I1208
sg3008
I3004
sg841
I837
sg449
I445
sg1818
I1814
sg2863
I2859
sg3067
I3063
sg1820
I1816
sg3557
I3553
sg199
I195
sg192
I188
sg2620
I2616
sg848
I844
sg373
I369
sg4751
I4747
sg4063
I4059
sg359
I355
sg4633
I4629
sg2698
I2694
sg1485
I1481
sg1803
I1799
sg1369
I1365
sg560
I556
sg3484
I3480
sg2399
I2395
sg1039
I1035
sg3536
I3532
sg3807
I3803
sg2658
I2654
sg2899
I2895
sg1155
I1151
sg2417
I2413
sg954
I950
sg4311
I4307
sg1738
I1734
sg4109
I4105
sg2655
I2651
sg4951
I4947
sg3778
I3774
sg542
I538
sg3465
I3461
sg3757
I3753
sg4206
I4202
sg2589
I2585
sg4512
I4508
sg2017
I2013
sg2020
I2016
sg4167
I4163
sg2179
I2175
sg2379
I2375
sg1094
I1090
sg2127
I2123
sg4695
I4691
sg2626
I2622
sg1229
I1225
sg3747
I3743
sg3913
I3909
sg2673
I2669
sg4684
I4680
sg2391
I2387
sg2272
I2268
sg4306
I4302
sg1719
I1715
sg22
I18
sg2952
I2948
sg3360
I3356
sg2572
I2568
sg3928
I3924
sg556
I552
sg2829
I2825
sg4087
I4083
sg1458
I1454
sg2926
I2922
sg1129
I1125
sg3849
I3845
sg726
I722
sg4556
I4552
sg2991
I2987
sg3668
I3664
sg2810
I2806
sg2959
I2955
sg108
I104
sg1001
I997
sg1169
I1165
sg4456
I4452
sg3057
I3053
sg3955
I3951
sg302
I298
sg4904
I4900
sg4689
I4685
sg1054
I1050
sg879
I875
sg2396
I2392
sg1550
I1546
sg1168
I1164
sg2912
I2908
sg2679
I2675
sg3161
I3157
sg1330
I1326
sg1201
I1197
sg1402
I1398
sg1867
I1863
sg4666
I4662
sg3800
I3796
sg173
I169
sg4190
I4186
sg331
I327
sg2337
I2333
sg996
I992
sg4328
I4324
sg3040
I3036
sg2242
I2238
sg2446
I2442
sg858
I854
sg2151
I2147
sg117
I113
sg2008
I2004
sg386
I382
sg3111
I3107
sg769
I765
sg1986
I1982
sg3087
I3083
sg3978
I3974
sg2451
I2447
sg3265
I3261
sg3993
I3989
sg636
I632
sg3866
I3862
sg1659
I1655
sg3718
I3714
sg122
I118
sg4447
I4443
sg3616
I3612
sg2707
I2703
sg314
I310
sg935
I931
sg3717
I3713
sg362
I358
sg4975
I4971
sg2009
I2005
sg2484
I2480
sg483
I479
sg2719
I2715
sg2825
I2821
sg1969
I1965
sg4500
I4496
sg4380
I4376
sg3283
I3279
sg2103
I2099
sg1931
I1927
sg1743
I1739
sg440
I436
sg3239
I3235
sg2416
I2412
sg2774
I2770
sg3271
I3267
sg4639
I4635
sg3739
I3735
sg2104
I2100
sg974
I970
sg3871
I3867
sg3520
I3516
sg605
I601
sg3333
I3329
sg4977
I4973
sg224
I220
sg1973
I1969
sg2542
I2538
sg2380
I2376
sg2611
I2607
sg4931
I4927
sg3936
I3932
sg1582
I1578
sg170
I166
sg154
I150
sg2834
I2830
sg3060
I3056
sg2101
I2097
sg58
I54
sg2418
I2414
sg3032
I3028
sg4094
I4090
sg1323
I1319
sg4626
I4622
sg3889
I3885
sg3565
I3561
sg2390
I2386
sg160
I156
sg4224
I4220
sg2886
I2882
sg3676
I3672
sg4971
I4967
sg15
I11
sg4546
I4542
sg4629
I4625
sg4374
I4370
sg3697
I3693
sg3831
I3827
sg4429
I4425
sg1708
I1704
sg4359
I4355
sg1119
I1115
sg3740
I3736
sg397
I393
sg3169
I3165
sg2425
I2421
sg1863
I1859
sg4663
I4659
sg2312
I2308
sg1115
I1111
sg589
I585
sg4144
I4140
sg2636
I2632
sg3088
I3084
sg4031
I4027
sg1728
I1724
sg3285
I3281
sg234
I230
sg4464
I4460
sg2091
I2087
sg1022
I1018
sg2558
I2554
sg1447
I1443
sg1321
I1317
sg1477
I1473
sg3741
I3737
sg4451
I4447
sg4124
I4120
sg123
I119
sg4895
I4891
sg1316
I1312
sg4926
I4922
sg1432
I1428
sg3329
I3325
sg4611
I4607
sg2496
I2492
sg3830
I3826
sg659
I655
sg4173
I4169
sg1840
I1836
sg4120
I4116
sg1349
I1345
sg1561
I1557
sg3851
I3847
sg2972
I2968
sg2250
I2246
sg3669
I3665
sg1459
I1455
sg2095
I2091
sg2430
I2426
sg3986
I3982
sg2592
I2588
sg2118
I2114
sg1187
I1183
sg2906
I2902
sg2182
I2178
sg865
I861
sg388
I384
sg1287
I1283
sg184
I180
sg4956
I4952
sg3197
I3193
sg3038
I3034
sg3553
I3549
sg2174
I2170
sg4966
I4962
sg2326
I2322
sg1288
I1284
sg1917
I1913
sg1663
I1659
sg1162
I1158
sg4561
I4557
sg2444
I2440
sg3709
I3705
sg3756
I3752
sg2936
I2932
sg141
I137
sg2872
I2868
sg519
I515
sg4526
I4522
sg3076
I3072
sg1466
I1462
sg3689
I3685
sg1197
I1193
sg1706
I1702
sg4458
I4454
sg3848
I3844
sg685
I681
sg4046
I4042
sg4043
I4039
sg508
I504
sg664
I660
sg1606
I1602
sg3487
I3483
sg3682
I3678
sg4915
I4911
sg4090
I4086
sg2285
I2281
sg4023
I4019
sg3924
I3920
sg2591
I2587
sg3840
I3836
sg2768
I2764
sg706
I702
sg4585
I4581
sg1437
I1433
sg1096
I1092
sg3713
I3709
sg3877
I3873
sg295
I291
sg401
I397
sg672
I668
sg1514
I1510
sg4562
I4558
sg3223
I3219
sg2246
I2242
sg1084
I1080
sg1613
I1609
sg1644
I1640
sg4619
I4615
sg2317
I2313
sg261
I257
sg4843
I4839
sg1424
I1420
sg3113
I3109
sg4829
I4825
sg2084
I2080
sg2890
I2886
sg2229
I2225
sg4294
I4290
sg2651
I2647
sg1873
I1869
sg3893
I3889
sg3246
I3242
sg4387
I4383
sg518
I514
sg432
I428
sg4764
I4760
sg1271
I1267
sg2885
I2881
sg595
I591
sg4260
I4256
sg4759
I4755
sg4669
I4665
sg439
I435
sg2637
I2633
sg4622
I4618
sg4667
I4663
sg2047
I2043
sg966
I962
sg1669
I1665
sg3519
I3515
sg2960
I2956
sg3900
I3896
sg3059
I3055
sg277
I273
sg650
I646
sg4654
I4650
sg520
I516
sg1495
I1491
sg4434
I4430
sg33
I29
sg357
I353
sg3694
I3690
sg2613
I2609
sg1088
I1084
sg4867
I4863
sg4858
I4854
sg651
I647
sg4840
I4836
sg4386
I4382
sg4776
I4772
sg3538
I3534
sg2784
I2780
sg51
I47
sg3586
I3582
sg1735
I1731
sg3247
I3243
sg1311
I1307
sg2649
I2645
sg3411
I3407
sg3712
I3708
sg4919
I4915
sg2809
I2805
sg4351
I4347
sg4226
I4222
sg2081
I2077
sg4727
I4723
sg2700
I2696
sg3355
I3351
sg908
I904
sg101
I97
sg3899
I3895
sg1073
I1069
sg3254
I3250
sg1569
I1565
sg3210
I3206
sg3144
I3140
sg3443
I3439
sg21
I17
sg3664
I3660
sg390
I386
sg562
I558
sg1057
I1053
sg3821
I3817
sg812
I808
sg1216
I1212
sg571
I567
sg2662
I2658
sg150
I146
sg1376
I1372
sg2436
I2432
sg152
I148
sg2811
I2807
sg2734
I2730
sg2204
I2200
sg3326
I3322
sg656
I652
sg3738
I3734
sg167
I163
sg797
I793
sg3635
I3631
sg2274
I2270
sg1419
I1415
sg2300
I2296
sg584
I580
sg2038
I2034
sg3320
I3316
sg4967
I4963
sg1952
I1948
sg1727
I1723
sg4613
I4609
sg3721
I3717
sg3509
I3505
sg1354
I1350
sg1386
I1382
sg3278
I3274
sg1859
I1855
sg4388
I4384
sg3461
I3457
sg3157
I3153
sg3783
I3779
sg655
I651
sg2192
I2188
sg119
I115
sg3695
I3691
sg4392
I4388
sg1862
I1858
sg621
I617
sg3031
I3027
sg4284
I4280
sg750
I746
sg1337
I1333
sg898
I894
sg2170
I2166
sg1940
I1936
sg1075
I1071
sg652
I648
sg1215
I1211
sg2493
I2489
sg223
I219
sg3445
I3441
sg710
I706
sg2614
I2610
sg2340
I2336
sg1375
I1371
sg71
I67
sg49
I45
sg4301
I4297
sg4898
I4894
sg598
I594
sg3035
I3031
sg4812
I4808
sg2550
I2546
sg438
I434
sg4246
I4242
sg1132
I1128
sg649
I645
sg473
I469
sg2949
I2945
sg2708
I2704
sg3839
I3835
sg3722
I3718
sg917
I913
sg4339
I4335
sg1159
I1155
sg4045
I4041
sg4724
I4720
sg3245
I3241
sg2634
I2630
sg4261
I4257
sg3451
I3447
sg1426
I1422
sg4336
I4332
sg1409
I1405
sg2100
I2096
sg699
I695
sg2467
I2463
sg4853
I4849
sg3476
I3472
sg3795
I3791
sg2884
I2880
sg62
I58
sg4323
I4319
sg2702
I2698
sg1559
I1555
sg4974
I4970
sg326
I322
sg4490
I4486
sg1793
I1789
sg4292
I4288
sg1722
I1718
sg3328
I3324
sg4557
I4553
sg2064
I2060
sg463
I459
sg2388
I2384
sg1065
I1061
sg4278
I4274
sg206
I202
sg216
I212
sg4251
I4247
sg2969
I2965
sg3318
I3314
sg252
I248
sg3464
I3460
sg1875
I1871
sg2984
I2980
sg505
I501
sg2659
I2655
sg2102
I2098
sg4212
I4208
sg600
I596
sg4312
I4308
sg391
I387
sg1737
I1733
sg4653
I4649
sg1884
I1880
sg2031
I2027
sg579
I575
sg1387
I1383
sg3358
I3354
sg1104
I1100
sg2345
I2341
sg2902
I2898
sg4503
I4499
sg2543
I2539
sg521
I517
sg360
I356
sg4545
I4541
sg3763
I3759
sg140
I136
sg376
I372
sg2384
I2380
sg4643
I4639
sg1528
I1524
sg4183
I4179
sg1934
I1930
sg2347
I2343
sg1489
I1485
sg4155
I4151
sg2794
I2790
sg354
I350
sg1254
I1250
sg98
I94
sg3815
I3811
sg2635
I2631
sg1856
I1852
sg3428
I3424
sg2537
I2533
sg766
I762
sg4365
I4361
sg697
I693
sg862
I858
sg4015
I4011
sg1810
I1806
sg4113
I4109
sg2457
I2453
sg1699
I1695
sg85
I81
sg4269
I4265
sg1778
I1774
sg1421
I1417
sg3437
I3433
sg861
I857
sg3884
I3880
sg737
I733
sg1170
I1166
sg3243
I3239
sg2275
I2271
sg3200
I3196
sg2771
I2767
sg2958
I2954
sg180
I176
sg682
I678
sg1506
I1502
sg118
I114
sg4617
I4613
sg4433
I4429
sg2094
I2090
sg53
I49
sg2913
I2909
sg1653
I1649
sg4713
I4709
sg3399
I3395
sg415
I411
sg3693
I3689
sg3648
I3644
sg3743
I3739
sg4676
I4672
sg925
I921
sg4589
I4585
sg2415
I2411
sg3204
I3200
sg679
I675
sg4037
I4033
sg2551
I2547
sg2842
I2838
sg1455
I1451
sg632
I628
sg3272
I3268
sg143
I139
sg2280
I2276
sg1636
I1632
sg573
I569
sg4018
I4014
sg4954
I4950
sg1147
I1143
sg1172
I1168
sg44
I40
sg833
I829
sg890
I886
sg3552
I3548
sg4032
I4028
sg1044
I1040
sg2986
I2982
sg1296
I1292
sg1972
I1968
sg1648
I1644
sg1781
I1777
sg988
I984
sg3524
I3520
sg4992
I4988
sg944
I940
sg1272
I1268
sg2927
I2923
sg1066
I1062
sg3688
I3684
sg4062
I4058
sg631
I627
sg1959
I1955
sg639
I635
sg4642
I4638
sg3770
I3766
sg1210
I1206
sg2995
I2991
sg2997
I2993
sg794
I790
sg4634
I4630
sg1870
I1866
sg2039
I2035
sg982
I978
sg3470
I3466
sg385
I381
sg344
I340
sg102
I98
sg1577
I1573
sg485
I481
sg4180
I4176
sg1739
I1735
sg3626
I3622
sg3004
I3000
sg2873
I2869
sg3403
I3399
sg540
I536
sg222
I218
sg423
I419
sg1141
I1137
sg3570
I3566
sg2860
I2856
sg2404
I2400
sg3651
I3647
sg2332
I2328
sg729
I725
sg4441
I4437
sg99
I95
sg3581
I3577
sg2921
I2917
sg2053
I2049
sg1374
I1370
sg2711
I2707
sg2919
I2915
sg1857
I1853
sg2455
I2451
sg4368
I4364
sg2445
I2441
sg1861
I1857
sg1482
I1478
sg4737
I4733
sg701
I697
sg2724
I2720
sg1364
I1360
sg4912
I4908
sg4105
I4101
sg3099
I3095
sg2258
I2254
sg3715
I3711
sg1373
I1369
sg2175
I2171
sg969
I965
sg2245
I2241
sg392
I388
sg2010
I2006
sg2365
I2361
sg408
I404
sg4100
I4096
sg4091
I4087
sg4809
I4805
sg1218
I1214
sg4804
I4800
sg4061
I4057
sg2831
I2827
sg4991
I4987
sg1832
I1828
sg1787
I1783
sg1977
I1973
sg1392
I1388
sg2880
I2876
sg2214
I2210
sg2400
I2396
sg4335
I4331
sg1607
I1603
sg3964
I3960
sg4911
I4907
sg3887
I3883
sg2490
I2486
sg2208
I2204
sg4112
I4108
sg1709
I1705
sg2334
I2330
sg11
I7
sg347
I343
sg895
I891
sg3407
I3403
sg4810
I4806
sg1080
I1076
sg2533
I2529
sg1967
I1963
sg2924
I2920
sg289
I285
sg4228
I4224
sg2438
I2434
sg4797
I4793
sg3945
I3941
sg1982
I1978
sg2722
I2718
sg3512
I3508
sg2857
I2853
sg1984
I1980
sg2411
I2407
sg1591
I1587
sg4274
I4270
sg454
I450
sg539
I535
sg4774
I4770
sg267
I263
sg3555
I3551
sg4762
I4758
sg3880
I3876
sg3794
I3790
sg1340
I1336
sg2882
I2878
sg1880
I1876
sg2791
I2787
sg1609
I1605
sg3500
I3496
sg503
I499
sg1819
I1815
sg931
I927
sg2705
I2701
sg727
I723
sg842
I838
sg799
I795
sg762
I758
sg2006
I2002
sg1896
I1892
sg2501
I2497
sg1433
I1429
sg3377
I3373
sg1431
I1427
sg371
I367
sg3107
I3103
sg4856
I4852
sg4597
I4593
sg2524
I2520
sg3824
I3820
sg3749
I3745
sg3466
I3462
sg20
I16
sg4178
I4174
sg1555
I1551
sg2028
I2024
sg3363
I3359
sg3327
I3323
sg880
I876
sg2730
I2726
sg3843
I3839
sg4704
I4700
sg3303
I3299
sg3058
I3054
sg1125
I1121
sg2689
I2685
sg4391
I4387
sg263
I259
sg238
I234
sg4313
I4309
sg2594
I2590
sg2900
I2896
sg3716
I3712
sg3365
I3361
sg3818
I3814
sg909
I905
sg1711
I1707
sg2727
I2723
sg4518
I4514
sg3789
I3785
sg80
I76
sg4539
I4535
sg4528
I4524
sg78
I74
sg2940
I2936
sg372
I368
sg1691
I1687
sg3589
I3585
sg2221
I2217
sg383
I379
sg1843
I1839
sg4499
I4495
sg1568
I1564
sg2909
I2905
sg2262
I2258
sg2894
I2890
sg479
I475
sg1121
I1117
sg4816
I4812
sg3865
I3861
sg4077
I4073
sg3429
I3425
sg3590
I3586
sg1000
I996
sg1805
I1801
sg2830
I2826
sg3496
I3492
sg4937
I4933
sg2346
I2342
sg221
I217
sg2565
I2561
sg4249
I4245
sg1362
I1358
sg778
I774
sg3787
I3783
sg1351
I1347
sg4371
I4367
sg2030
I2026
sg1853
I1849
sg2641
I2637
sg1120
I1116
sg9
I5
sg2632
I2628
sg1108
I1104
sg1403
I1399
sg4342
I4338
sg2930
I2926
sg2754
I2750
sg4944
I4940
sg2741
I2737
sg749
I745
sg2397
I2393
sg4882
I4878
sg4868
I4864
sg1395
I1391
sg3295
I3291
sg1225
I1221
sg1383
I1379
sg1382
I1378
sg4875
I4871
sg54
I50
sg218
I214
sg802
I798
sg1381
I1377
sg323
I319
sg2511
I2507
sg451
I447
sg2117
I2113
sg418
I414
sg4438
I4434
sg256
I252
sg1833
I1829
sg3212
I3208
sg1938
I1934
sg3858
I3854
sg2184
I2180
sg4208
I4204
sg660
I656
sg2566
I2562
sg3943
I3939
sg4744
I4740
sg3274
I3270
sg4349
I4345
sg4060
I4056
sg4242
I4238
sg4848
I4844
sg1968
I1964
sg4493
I4489
sg3133
I3129
sg4775
I4771
sg673
I669
sg4657
I4653
sg3061
I3057
sg2304
I2300
sg3230
I3226
sg4962
I4958
sg596
I592
sg3960
I3956
sg3047
I3043
sg1277
I1273
sg1163
I1159
sg638
I634
sg2048
I2044
sg3878
I3874
sg190
I186
sg4833
I4829
sg3387
I3383
sg2420
I2416
sg4354
I4350
sg2054
I2050
sg1020
I1016
sg4641
I4637
sg4069
I4065
sg732
I728
sg3990
I3986
sg4080
I4076
sg2758
I2754
sg3479
I3475
sg4287
I4283
sg3338
I3334
sg324
I320
sg356
I352
sg4758
I4754
sg1491
I1487
sg2191
I2187
sg1656
I1652
sg3401
I3397
sg3808
I3804
sg10
I6
sg1319
I1315
sg1596
I1592
sg1768
I1764
sg1956
I1952
sg1957
I1953
sg4488
I4484
sg2597
I2593
sg1327
I1323
sg1368
I1364
sg1010
I1006
sg4534
I4530
sg3798
I3794
sg2269
I2265
sg4407
I4403
sg3251
I3247
sg4378
I4374
sg808
I804
sg4413
I4409
sg3949
I3945
sg3782
I3778
sg3988
I3984
sg4627
I4623
sg3854
I3850
sg785
I781
sg87
I83
sg834
I830
sg933
I929
sg2943
I2939
sg1167
I1163
sg350
I346
sg4248
I4244
sg4199
I4195
sg4588
I4584
sg1618
I1614
sg1707
I1703
sg23
I19
sg4560
I4556
sg3683
I3679
sg3547
I3543
sg2268
I2264
sg912
I908
sg2601
I2597
sg3048
I3044
sg1702
I1698
sg2247
I2243
sg4404
I4400
sg2357
I2353
sg413
I409
sg2092
I2088
sg2201
I2197
sg1438
I1434
sg2736
I2732
sg4156
I4152
sg3855
I3851
sg3028
I3024
sg4939
I4935
sg680
I676
sg4020
I4016
sg4969
I4965
sg4532
I4528
sg358
I354
sg2049
I2045
sg904
I900
sg1498
I1494
sg2156
I2152
sg916
I912
sg3046
I3042
sg2046
I2042
sg4793
I4789
sg4188
I4184
sg2145
I2141
sg2523
I2519
sg4733
I4729
sg187
I183
sg1916
I1912
sg624
I620
sg3304
I3300
sg3375
I3371
sg4918
I4914
sg112
I108
sg3896
I3892
sg2186
I2182
sg2994
I2990
sg4426
I4422
sg3853
I3849
sg1029
I1025
sg3761
I3757
sg648
I644
sg4214
I4210
sg3296
I3292
sg2666
I2662
sg1995
I1991
sg3078
I3074
sg4784
I4780
sg4805
I4801
sg1179
I1175
sg1476
I1472
sg4486
I4482
sg4332
I4328
sg3469
I3465
sg1156
I1152
sg3996
I3992
sg2139
I2135
sg4615
I4611
sg1508
I1504
sg2570
I2566
sg2231
I2227
sg2851
I2847
sg4580
I4576
sg1565
I1561
sg3687
I3683
sg2723
I2719
sg82
I78
sg4398
I4394
sg1975
I1971
sg3834
I3830
sg761
I757
sg4450
I4446
sg3128
I3124
sg4645
I4641
sg4702
I4698
sg4320
I4316
sg2575
I2571
sg3641
I3637
sg2459
I2455
sg2892
I2888
sg1614
I1610
sg4946
I4942
sg1445
I1441
sg4055
I4051
sg728
I724
sg4054
I4050
sg1881
I1877
sg4948
I4944
sg1451
I1447
sg4370
I4366
sg4523
I4519
sg691
I687
sg4195
I4191
sg27
I23
sg3378
I3374
sg4871
I4867
sg1764
I1760
sg1590
I1586
sg1348
I1344
sg4366
I4362
sg4143
I4139
sg3189
I3185
sg1093
I1089
sg3499
I3495
sg4802
I4798
sg228
I224
sg670
I666
sg1677
I1673
sg2237
I2233
sg4171
I4167
sg783
I779
sg4393
I4389
sg3723
I3719
sg4121
I4117
sg3753
I3749
sg1259
I1255
sg2355
I2351
sg1554
I1550
sg1560
I1556
sg157
I153
sg3231
I3227
sg2235
I2231
sg2639
I2635
sg47
I43
sg494
I490
sg2942
I2938
sg2985
I2981
sg4753
I4749
sg3734
I3730
sg3006
I3002
sg1408
I1404
sg532
I528
sg298
I294
sg3138
I3134
sg1130
I1126
sg2653
I2649
sg472
I468
sg2141
I2137
sg1496
I1492
sg2737
I2733
sg3580
I3576
sg4688
I4684
sg1074
I1070
sg2115
I2111
sg4494
I4490
sg4302
I4298
sg3926
I3922
sg2093
I2089
sg4767
I4763
sg3724
I3720
sg387
I383
sg2342
I2338
sg1152
I1148
sg2482
I2478
sg731
I727
sg2077
I2073
sg2512
I2508
sg1695
I1691
sg1370
I1366
sg4330
I4326
sg2078
I2074
sg310
I306
sg4253
I4249
sg146
I142
sg2002
I1998
sg3620
I3616
sg2375
I2371
sg1512
I1508
sg1987
I1983
sg585
I581
sg3012
I3008
sg4921
I4917
sg608
I604
sg4789
I4785
sg3762
I3758
sg3908
I3904
sg3564
I3560
sg889
I885
sg480
I476
sg3792
I3788
sg3619
I3615
sg2787
I2783
sg3814
I3810
sg2230
I2226
sg3186
I3182
sg4122
I4118
sg4847
I4843
sg4866
I4862
sg1515
I1511
sg734
I730
sg92
I88
sg2232
I2228
sg1660
I1656
sg1446
I1442
sg3135
I3131
sg2748
I2744
sg3359
I3355
sg692
I688
sg3969
I3965
sg773
I769
sg2073
I2069
sg535
I531
sg2793
I2789
sg4200
I4196
sg2987
I2983
sg3708
I3704
sg3727
I3723
sg4822
I4818
sg2593
I2589
sg2407
I2403
sg2827
I2823
sg976
I972
sg745
I741
sg3826
I3822
sg1788
I1784
sg1525
I1521
sg1610
I1606
sg1165
I1161
sg987
I983
sg506
I502
sg1154
I1150
sg541
I537
sg3573
I3569
sg39
I35
sg4337
I4333
sg165
I161
sg1670
I1666
sg2075
I2071
sg1941
I1937
sg3221
I3217
sg2206
I2202
sg2382
I2378
sg2329
I2325
sg3203
I3199
sg402
I398
sg4930
I4926
sg4430
I4426
sg3934
I3930
sg2442
I2438
sg642
I638
sg4333
I4329
sg2539
I2535
sg3503
I3499
sg921
I917
sg4986
I4982
sg3462
I3458
sg321
I317
sg2710
I2706
sg2760
I2756
sg1043
I1039
sg1540
I1536
sg1830
I1826
sg3364
I3360
sg509
I505
sg1904
I1900
sg2821
I2817
sg2120
I2116
sg4683
I4679
sg4914
I4910
sg1232
I1228
sg3541
I3537
sg497
I493
sg2116
I2112
sg2557
I2553
sg2297
I2293
sg1965
I1961
sg1779
I1775
sg2016
I2012
sg2975
I2971
sg1585
I1581
sg994
I990
sg2401
I2397
sg1161
I1157
sg3822
I3818
sg1900
I1896
sg419
I415
sg2385
I2381
sg2449
I2445
sg1713
I1709
sg2552
I2548
sg4453
I4449
sg3764
I3760
sg949
I945
sg4796
I4792
sg1742
I1738
sg2681
I2677
sg4176
I4172
sg4988
I4984
sg2841
I2837
sg443
I439
sg2961
I2957
sg3367
I3363
sg3797
I3793
sg1390
I1386
sg4659
I4655
sg1841
I1837
sg280
I276
sg3316
I3312
sg1993
I1989
sg1586
I1582
sg4409
I4405
sg75
I71
sg3997
I3993
sg1935
I1931
sg436
I432
sg1033
I1029
sg3735
I3731
sg4414
I4410
sg3888
I3884
sg4531
I4527
sg2199
I2195
sg1854
I1850
sg1530
I1526
sg1464
I1460
sg2735
I2731
sg2403
I2399
sg3592
I3588
sg2406
I2402
sg3468
I3464
sg2513
I2509
sg2989
I2985
sg3650
I3646
sg2111
I2107
sg3515
I3511
sg69
I65
sg1527
I1523
sg2023
I2019
sg2971
I2967
sg2627
I2623
sg4455
I4451
sg3702
I3698
sg3624
I3620
sg3442
I3438
sg1040
I1036
sg3273
I3269
sg1827
I1823
sg1806
I1802
sg3030
I3026
sg3390
I3386
sg2392
I2388
sg181
I177
sg1092
I1088
sg1802
I1798
sg2431
I2427
sg3784
I3780
sg2037
I2033
sg2918
I2914
sg1203
I1199
sg577
I573
sg2947
I2943
sg2150
I2146
sg4078
I4074
sg2000
I1996
sg4614
I4610
sg4028
I4024
sg2323
I2319
sg3417
I3413
sg3178
I3174
sg1252
I1248
sg611
I607
sg4567
I4563
sg291
I287
sg4813
I4809
sg4955
I4951
sg1250
I1246
sg1324
I1320
sg4738
I4734
sg3036
I3032
sg4481
I4477
sg3165
I3161
sg4543
I4539
sg2335
I2331
sg4899
I4895
sg4927
I4923
sg4424
I4420
sg1014
I1010
sg1183
I1179
sg215
I211
sg3321
I3317
sg3561
I3557
sg4716
I4712
sg1347
I1343
sg2624
I2620
sg3686
I3682
sg340
I336
sg4128
I4124
sg1628
I1624
sg3219
I3215
sg4006
I4002
sg3369
I3365
sg800
I796
sg292
I288
sg3967
I3963
sg980
I976
sg1298
I1294
sg4651
I4647
sg2813
I2809
sg3224
I3220
sg94
I90
sg12
I8
sg3082
I3078
sg4938
I4934
sg2105
I2101
sg1294
I1290
sg4318
I4314
sg2180
I2176
sg4786
I4782
sg828
I824
sg1974
I1970
sg4013
I4009
sg4652
I4648
sg3605
I3601
sg767
I763
sg2080
I2076
sg3074
I3070
sg1723
I1719
sg2458
I2454
sg2291
I2287
sg4607
I4603
sg2812
I2808
sg1646
I1642
sg2202
I2198
sg2265
I2261
sg3255
I3251
sg4647
I4643
sg878
I874
sg2173
I2169
sg1573
I1569
sg4181
I4177
sg4345
I4341
sg1686
I1682
sg1053
I1049
sg474
I470
sg3124
I3120
sg3033
I3029
sg2071
I2067
sg1305
I1301
sg2485
I2481
sg4233
I4229
sg2839
I2835
sg1777
I1773
sg2024
I2020
sg4263
I4259
sg3944
I3940
sg1906
I1902
sg2955
I2951
sg1002
I998
sg2954
I2950
sg740
I736
sg265
I261
sg1705
I1701
sg1385
I1381
sg3498
I3494
sg3909
I3905
sg4933
I4929
sg1471
I1467
sg620
I616
sg2263
I2259
sg663
I659
sg3617
I3613
sg3850
I3846
sg3556
I3552
sg4216
I4212
sg3925
I3921
sg1423
I1419
sg1626
I1622
sg4358
I4354
sg3125
I3121
sg1306
I1302
sg945
I941
sg4492
I4488
sg2935
I2931
sg4290
I4286
sg1950
I1946
sg465
I461
sg405
I401
sg3405
I3401
sg2361
I2357
sg4194
I4190
sg4097
I4093
sg4236
I4232
sg2025
I2021
sg1715
I1711
sg657
I653
sg4057
I4053
sg3238
I3234
sg2266
I2262
sg3875
I3871
sg4896
I4892
sg2447
I2443
sg4781
I4777
sg1546
I1542
sg1785
I1781
sg4675
I4671
sg84
I80
sg823
I819
sg3946
I3942
sg3009
I3005
sg2584
I2580
sg2207
I2203
sg905
I901
sg1346
I1342
sg1690
I1686
sg4985
I4981
sg1472
I1468
sg2264
I2260
sg2596
I2592
sg4884
I4880
sg1587
I1583
sg4595
I4591
sg3042
I3038
sg2003
I1999
sg2712
I2708
sg3236
I3232
sg1899
I1895
sg1513
I1509
sg671
I667
sg1961
I1957
sg816
I812
sg4825
I4821
sg2169
I2165
sg3813
I3809
sg3661
I3657
sg4139
I4135
sg4678
I4674
sg724
I720
sg3406
I3402
sg668
I664
sg3353
I3349
sg4119
I4115
sg4405
I4401
sg4801
I4797
sg2119
I2115
sg3549
I3545
sg1410
I1406
sg3177
I3173
sg1611
I1607
sg2554
I2550
sg3533
I3529
sg4145
I4141
sg907
I903
sg604
I600
sg2675
I2671
sg471
I467
sg4705
I4701
sg2881
I2877
sg4017
I4013
sg3588
I3584
sg1990
I1986
sg2398
I2394
sg17
I13
sg4586
I4582
sg1462
I1458
sg3218
I3214
sg1746
I1742
sg161
I157
sg2514
I2510
sg3103
I3099
sg934
I930
sg1175
I1171
sg1217
I1213
sg1981
I1977
sg514
I510
sg4507
I4503
sg41
I37
sg3068
I3064
sg3198
I3194
sg4377
I4373
sg1008
I1004
sg4817
I4813
sg1712
I1708
sg3152
I3148
sg4008
I4004
sg2007
I2003
sg231
I227
sg1081
I1077
sg3558
I3554
sg1845
I1841
sg3907
I3903
sg2315
I2311
sg1825
I1821
sg4608
I4604
sg2486
I2482
sg4772
I4768
sg2725
I2721
sg4832
I4828
sg2833
I2829
sg4902
I4898
sg1535
I1531
sg2609
I2605
sg40
I36
sg2012
I2008
sg4067
I4063
sg3069
I3065
sg2686
I2682
sg2043
I2039
sg4277
I4273
sg2273
I2269
sg792
I788
sg2167
I2163
sg813
I809
sg3659
I3655
sg3302
I3298
sg1380
I1376
sg4746
I4742
sg4356
I4352
sg2350
I2346
sg3248
I3244
sg2121
I2117
sg1082
I1078
sg1055
I1051
sg1456
I1452
sg4502
I4498
sg1756
I1752
sg703
I699
sg690
I686
sg633
I629
sg2776
I2772
sg185
I181
sg995
I991
sg73
I69
sg337
I333
sg3205
I3201
sg2410
I2406
sg871
I867
sg2376
I2372
sg114
I110
sg4923
I4919
sg2161
I2157
sg3594
I3590
sg4065
I4061
sg2106
I2102
sg1434
I1430
sg2877
I2873
sg4935
I4931
sg2029
I2025
sg97
I93
sg566
I562
sg3357
I3353
sg498
I494
sg4437
I4433
sg1429
I1425
sg2389
I2385
sg1377
I1373
sg911
I907
sg4427
I4423
sg1291
I1287
sg616
I612
sg681
I677
sg927
I923
sg635
I631
sg3217
I3213
sg4309
I4305
sg1126
I1122
sg4913
I4909
sg3164
I3160
sg2089
I2085
sg1417
I1413
sg346
I342
sg1136
I1132
sg3614
I3610
sg3276
I3272
sg2684
I2680
sg572
I568
sg268
I264
sg3453
I3449
sg4596
I4592
sg1118
I1114
sg1566
I1562
sg1650
I1646
sg2097
I2093
sg3066
I3062
sg4579
I4575
sg111
I107
sg1855
I1851
sg2461
I2457
sg3785
I3781
sg248
I244
sg4640
I4636
sg3127
I3123
sg809
I805
sg1544
I1540
sg3089
I3085
sg2779
I2775
sg1233
I1229
sg3242
I3238
sg3883
I3879
sg4558
I4554
sg528
I524
sg459
I455
sg7
I3
sg1562
I1558
sg587
I583
sg1954
I1950
sg2051
I2047
sg2122
I2118
sg4146
I4142
sg339
I335
sg4712
I4708
sg3134
I3130
sg744
I740
sg2878
I2874
sg4736
I4732
sg2492
I2488
sg2344
I2340
sg4185
I4181
sg4714
I4710
sg1379
I1375
sg2965
I2961
sg960
I956
sg370
I366
sg3492
I3488
sg1293
I1289
sg1237
I1233
sg156
I152
sg4310
I4306
sg2996
I2992
sg2756
I2752
sg3413
I3409
sg2252
I2248
sg1503
I1499
sg1518
I1514
sg3313
I3309
sg3981
I3977
sg516
I512
sg3873
I3869
sg89
I85
sg2348
I2344
sg1494
I1490
sg4564
I4560
sg1213
I1209
sg4157
I4153
sg1745
I1741
sg1116
I1112
sg4752
I4748
sg2218
I2214
sg1465
I1461
sg3606
I3602
sg1807
I1803
sg774
I770
sg4390
I4386
sg1664
I1660
sg4785
I4781
sg1378
I1374
sg3862
I3858
sg2840
I2836
sg534
I530
sg1138
I1134
sg3670
I3666
sg4592
I4588
sg42
I38
sg586
I582
sg3361
I3357
sg1497
I1493
sg2645
I2641
sg28
I24
sg1411
I1407
sg2858
I2854
sg1344
I1340
sg4035
I4031
sg3542
I3538
sg959
I955
sg1955
I1951
sg4771
I4767
sg1903
I1899
sg1674
I1670
sg4217
I4213
sg1425
I1421
sg3527
I3523
sg2066
I2062
sg3317
I3313
sg2587
I2583
sg2222
I2218
sg203
I199
sg4220
I4216
sg3510
I3506
sg304
I300
sg4002
I3998
sg4431
I4427
sg2372
I2368
sg770
I766
sg445
I441
sg4040
I4036
sg2709
I2705
sg3894
I3890
sg2510
I2506
sg3667
I3663
sg134
I130
sg4201
I4197
sg1113
I1109
sg617
I613
sg564
I560
sg1069
I1065
sg1051
I1047
sg2691
I2687
sg1921
I1917
sg1117
I1113
sg1878
I1874
sg258
I254
sg3707
I3703
sg4925
I4921
sg1032
I1028
sg2534
I2530
sg3796
I3792
sg1444
I1440
sg1757
I1753
sg2014
I2010
sg826
I822
sg2378
I2374
sg2944
I2940
sg2808
I2804
sg4628
I4624
sg1770
I1766
sg3097
I3093
sg3628
I3624
sg662
I658
sg3467
I3463
sg3083
I3079
sg2950
I2946
sg4598
I4594
sg4715
I4711
sg1209
I1205
sg1985
I1981
sg1295
I1291
sg348
I344
sg3863
I3859
sg2548
I2544
sg1157
I1153
sg3647
I3643
sg452
I448
sg3568
I3564
sg2234
I2230
sg247
I243
sg420
I416
sg4574
I4570
sg2287
I2283
sg490
I486
sg2351
I2347
sg2891
I2887
sg4527
I4523
sg4469
I4465
sg399
I395
sg4457
I4453
sg1003
I999
sg3531
I3527
sg831
I827
sg1366
I1362
sg1231
I1227
sg2690
I2686
sg2845
I2841
sg4590
I4586
sg4273
I4269
sg2746
I2742
sg2687
I2683
sg1657
I1653
sg712
I708
sg4818
I4814
sg2303
I2299
sg1726
I1722
sg2373
I2369
sg2889
I2885
sg884
I880
sg1570
I1566
sg4477
I4473
sg1122
I1118
sg4559
I4555
sg1776
I1772
sg3685
I3681
sg2744
I2740
sg1427
I1423
sg4863
I4859
sg2128
I2124
sg3836
I3832
sg4941
I4937
sg2294
I2290
sg1304
I1300
sg2437
I2433
sg845
I841
sg2052
I2048
sg1036
I1032
sg46
I42
sg217
I213
sg4601
I4597
sg1733
I1729
sg4209
I4205
sg1816
I1812
sg891
I887
sg824
I820
sg2957
I2953
sg3325
I3321
sg1631
I1627
sg4075
I4071
sg1605
I1601
sg1388
I1384
sg4936
I4932
sg4769
I4765
sg1064
I1060
sg249
I245
sg3736
I3732
sg4621
I4617
sg1588
I1584
sg743
I739
sg1400
I1396
sg2895
I2891
sg3540
I3536
sg3093
I3089
sg1654
I1650
sg466
I462
sg1500
I1496
sg3007
I3003
sg3021
I3017
sg2310
I2306
sg1052
I1048
sg4765
I4761
sg3287
I3283
sg1851
I1847
sg1860
I1856
sg2153
I2149
sg3595
I3591
sg2682
I2678
sg1751
I1747
sg4187
I4183
sg3842
I3838
sg1326
I1322
sg3174
I3170
sg2968
I2964
sg4475
I4471
sg2669
I2665
sg1913
I1909
sg4889
I4885
sg393
I389
sg2667
I2663
sg3665
I3661
sg1897
I1893
sg1517
I1513
sg287
I283
sg56
I52
sg1453
I1449
sg517
I513
sg2728
I2724
sg3202
I3198
sg2500
I2496
sg2844
I2840
sg4160
I4156
sg1205
I1201
sg4397
I4393
sg1526
I1522
sg211
I207
sg4317
I4313
sg3194
I3190
sg2194
I2190
sg805
I801
sg1773
I1769
sg4803
I4799
sg4026
I4022
sg395
I391
sg2866
I2862
sg1313
I1309
sg2353
I2349
sg3282
I3278
sg2953
I2949
sg1193
I1189
sg3314
I3310
sg1889
I1885
sg4961
I4957
sg3483
I3479
sg2224
I2220
sg3050
I3046
sg870
I866
sg4892
I4888
sg3902
I3898
sg4554
I4550
sg3261
I3257
sg125
I121
sg602
I598
sg4808
I4804
sg992
I988
sg2487
I2483
sg818
I814
sg1891
I1887
sg3585
I3581
sg637
I633
sg4754
I4750
sg1109
I1105
sg1625
I1621
sg4004
I4000
sg1926
I1922
sg1399
I1395
sg3587
I3583
sg369
I365
sg197
I193
sg2386
I2382
sg422
I418
sg1133
I1129
sg4227
I4223
sg4605
I4601
sg3312
I3308
sg700
I696
sg3790
I3786
sg1898
I1894
sg4130
I4126
sg1072
I1068
sg4084
I4080
sg407
I403
sg948
I944
sg4127
I4123
sg999
I995
sg246
I242
sg910
I906
sg1736
I1732
sg2286
I2282
sg3766
I3762
sg345
I341
sg2200
I2196
sg1034
I1030
sg2509
I2505
sg4788
I4784
sg1567
I1563
sg341
I337
sg4731
I4727
sg1683
I1679
sg1309
I1305
sg2257
I2253
sg4779
I4775
sg1822
I1818
sg1771
I1767
sg1164
I1160
sg164
I160
sg2807
I2803
sg1679
I1675
sg1144
I1140
sg3182
I3178
sg4484
I4480
sg544
I540
sg1964
I1960
sg3014
I3010
sg2928
I2924
sg4814
I4810
sg3433
I3429
sg3379
I3375
sg1396
I1392
sg2212
I2208
sg1308
I1304
sg431
I427
sg309
I305
sg2838
I2834
sg4114
I4110
sg3064
I3060
sg4132
I4128
sg239
I235
sg771
I767
sg619
I615
sg2238
I2234
sg2545
I2541
sg674
I670
sg688
I684
sg209
I205
sg1300
I1296
sg1814
I1810
sg361
I357
sg193
I189
sg131
I127
sg2480
I2476
sg955
I951
sg3905
I3901
sg1580
I1576
sg4949
I4945
sg4400
I4396
sg4168
I4164
sg806
I802
sg1124
I1120
sg3966
I3962
sg715
I711
sg4147
I4143
sg3309
I3305
sg552
I548
sg2580
I2576
sg501
I497
sg1318
I1314
sg4432
I4428
sg3105
I3101
sg1457
I1453
sg3649
I3645
sg4791
I4787
sg1815
I1811
sg4439
I4435
sg3044
I3040
sg4498
I4494
sg3803
I3799
sg1574
I1570
sg4952
I4948
sg4058
I4054
sg355
I351
sg447
I443
sg2085
I2081
sg3155
I3151
sg3572
I3568
sg4266
I4262
sg4730
I4726
sg3506
I3502
sg2546
I2542
sg2374
I2370
sg920
I916
sg4894
I4890
sg1597
I1593
sg3486
I3482
sg2405
I2401
sg594
I590
sg2862
I2858
sg793
I789
sg2549
I2545
sg4473
I4469
sg301
I297
sg50
I46
sg4878
I4874
sg702
I698
sg4293
I4289
sg4834
I4830
sg1095
I1091
sg2307
I2303
sg2816
I2812
sg2540
I2536
sg1452
I1448
sg1389
I1385
sg2108
I2104
sg3090
I3086
sg4247
I4243
sg968
I964
sg578
I574
sg4347
I4343
sg2504
I2500
sg1655
I1651
sg1111
I1107
sg2341
I2337
sg2518
I2514
sg2837
I2833
sg188
I184
sg4184
I4180
sg3388
I3384
sg3543
I3539
sg2377
I2373
sg2270
I2266
sg4718
I4714
sg32
I28
sg351
I347
sg2138
I2134
sg1267
I1263
sg827
I823
sg876
I872
sg1791
I1787
sg3477
I3473
sg567
I563
sg2440
I2436
sg1361
I1357
sg2733
I2729
sg4932
I4928
sg1171
I1167
sg2465
I2461
sg4729
I4725
sg4885
I4881
sg3170
I3166
sg3391
I3387
sg2529
I2525
sg1812
I1808
sg2521
I2517
sg627
I623
sg736
I732
sg711
I707
sg1441
I1437
sg189
I185
sg3819
I3815
sg3094
I3090
sg18
I14
sg4315
I4311
sg1153
I1149
sg2765
I2761
sg1469
I1465
sg1858
I1854
sg4942
I4938
sg4329
I4325
sg4549
I4545
sg1725
I1721
sg1407
I1403
sg938
I934
sg2868
I2864
sg4537
I4533
sg1524
I1520
sg1404
I1400
sg1717
I1713
sg4375
I4371
sg1849
I1845
sg4383
I4379
sg1612
I1608
sg4172
I4168
sg2032
I2028
sg2068
I2064
sg1767
I1763
sg1336
I1332
sg3016
I3012
sg260
I256
sg4357
I4353
sg2055
I2051
sg4540
I4536
sg384
I380
sg2136
I2132
sg3546
I3542
sg279
I275
sg3104
I3100
sg3370
I3366
sg1893
I1889
sg2015
I2011
sg214
I210
sg1098
I1094
sg2896
I2892
sg576
I572
sg2621
I2617
sg3319
I3315
sg4014
I4010
sg2864
I2860
sg2795
I2791
sg3942
I3938
sg937
I933
sg2769
I2765
sg3084
I3080
sg4198
I4194
sg4021
I4017
sg1836
I1832
sg281
I277
sg2371
I2367
sg1902
I1898
sg2189
I2185
sg4690
I4686
sg404
I400
sg2850
I2846
sg775
I771
sg1301
I1297
sg3607
I3603
sg4852
I4848
sg2276
I2272
sg3416
I3412
sg790
I786
sg640
I636
sg2195
I2191
sg2343
I2339
sg4103
I4099
sg3421
I3417
sg902
I898
sg4255
I4251
sg3455
I3451
sg1598
I1594
sg3781
I3777
sg4682
I4678
sg4343
I4339
sg4129
I4125
sg3222
I3218
sg2005
I2001
sg3706
I3702
sg3929
I3925
sg4265
I4261
sg3430
I3426
sg2481
I2477
sg2762
I2758
sg2439
I2435
sg2643
I2639
sg765
I761
sg958
I954
sg1249
I1245
sg3977
I3973
sg1415
I1411
sg2164
I2160
sg1578
I1574
sg3015
I3011
sg421
I417
sg3191
I3187
sg3719
I3715
sg81
I77
sg2907
I2903
sg772
I768
sg4959
I4955
sg3918
I3914
sg1226
I1222
sg502
I498
sg3018
I3014
sg847
I843
sg2822
I2818
sg646
I642
sg4044
I4040
sg4489
I4485
sg3528
I3524
sg3005
I3001
sg1015
I1011
sg283
I279
sg4123
I4119
sg2210
I2206
sg984
I980
sg1493
I1489
sg1059
I1055
sg1874
I1870
sg3148
I3144
sg817
I813
sg1325
I1321
sg3447
I3443
sg623
I619
sg801
I797
sg2107
I2103
sg1668
I1664
sg4088
I4084
sg4501
I4497
sg3657
I3653
sg2910
I2906
sg3903
I3899
sg2875
I2871
sg276
I272
sg1963
I1959
sg1703
I1699
sg4164
I4160
sg3881
I3877
sg923
I919
sg3574
I3570
sg1243
I1239
sg416
I412
sg330
I326
sg1838
I1834
sg1749
I1745
sg4519
I4515
sg4361
I4357
sg3208
I3204
sg3054
I3050
sg4870
I4866
sg1780
I1776
sg531
I527
sg1278
I1274
sg764
I760
sg2988
I2984
sg312
I308
sg30
I26
sg4963
I4959
sg3525
I3521
sg4551
I4547
sg695
I691
sg3143
I3139
sg4093
I4089
sg2109
I2105
sg2998
I2994
sg3396
I3392
sg3374
I3370
sg3513
I3509
sg3623
I3619
sg1509
I1505
sg2045
I2041
sg4670
I4666
sg1418
I1414
sg4197
I4193
sg591
I587
sg3336
I3332
sg1817
I1813
sg777
I773
sg1548
I1544
sg1581
I1577
sg1645
I1641
sg1007
I1003
sg4270
I4266
sg3384
I3380
sg3730
I3726
sg3680
I3676
sg2209
I2205
sg225
I221
sg1927
I1923
sg2147
I2143
sg3852
I3848
sg4239
I4235
sg3077
I3073
sg1951
I1947
sg1363
I1359
sg1314
I1310
sg2574
I2570
sg4524
I4520
sg4566
I4562
sg2780
I2776
sg4300
I4296
sg3610
I3606
sg3065
I3061
sg4515
I4511
sg3804
I3800
sg3389
I3385
sg3489
I3485
sg1178
I1174
sg3802
I3798
sg3820
I3816
sg4703
I4699
sg1888
I1884
sg1704
I1700
sg1734
I1730
sg72
I68
sg2488
I2484
sg4862
I4858
sg2236
I2232
sg1279
I1275
sg3920
I3916
sg2254
I2250
sg1191
I1187
sg2468
I2464
sg4768
I4764
sg4436
I4432
sg4851
I4847
sg4252
I4248
sg665
I661
sg2672
I2668
sg4016
I4012
sg2464
I2460
sg2311
I2307
sg1224
I1220
sg3732
I3728
sg3985
I3981
sg294
I290
sg3906
I3902
sg3987
I3983
sg2751
I2747
sg3160
I3156
sg3604
I3600
sg1208
I1204
sg1430
I1426
sg3677
I3673
sg2171
I2167
sg1620
I1616
sg4922
I4918
sg4474
I4470
sg850
I846
sg4880
I4876
sg2305
I2301
sg1090
I1086
sg784
I780
sg755
I751
sg3132
I3128
sg311
I307
sg789
I785
sg1478
I1474
sg1991
I1987
sg3092
I3088
sg867
I863
sg3973
I3969
sg3301
I3297
sg684
I680
sg4403
I4399
sg4314
I4310
sg2478
I2474
sg4865
I4861
sg1076
I1072
sg2155
I2151
sg2642
I2638
sg3805
I3801
sg4148
I4144
sg3885
I3881
sg4908
I4904
sg689
I685
sg3859
I3855
sg3914
I3910
sg3485
I3481
sg4677
I4673
sg1062
I1058
sg3488
I3484
sg3975
I3971
sg1146
I1142
sg462
I458
sg3980
I3976
sg1106
I1102
sg930
I926
sg1516
I1512
sg2271
I2267
sg3748
I3744
sg882
I878
sg13
I9
sg3508
I3504
sg3311
I3307
sg100
I96
sg219
I215
sg364
I360
sg136
I132
sg3631
I3627
sg3053
I3049
sg1786
I1782
sg2938
I2934
sg3002
I2998
sg3696
I3692
sg1624
I1620
sg1139
I1135
sg4495
I4491
sg4479
I4475
sg3927
I3923
sg965
I961
sg4275
I4271
sg4717
I4713
sg4417
I4413
sg4213
I4209
sg3745
I3741
sg2714
I2710
sg3930
I3926
sg4257
I4253
sg493
I489
sg1741
I1737
sg1564
I1560
sg3307
I3303
sg4606
I4602
sg4734
I4730
sg4204
I4200
sg297
I293
sg3071
I3067
sg1877
I1873
sg183
I179
sg4577
I4573
sg4694
I4690
sg2503
I2499
sg3999
I3995
sg2820
I2816
sg2248
I2244
sg2553
I2549
sg3535
I3531
sg2528
I2524
sg803
I799
sg4141
I4137
sg3480
I3476
sg2441
I2437
sg1467
I1463
sg1925
I1921
sg2177
I2173
sg163
I159
sg3215
I3211
sg1998
I1994
sg2677
I2673
sg4030
I4026
sg1343
I1339
sg4893
I4889
sg2354
I2350
sg613
I609
sg2800
I2796
sg4350
I4346
sg1868
I1864
sg2035
I2031
sg4978
I4974
sg86
I82
sg2785
I2781
sg2321
I2317
sg2670
I2666
sg4137
I4133
sg316
I312
sg4048
I4044
sg1160
I1156
sg1085
I1081
sg4823
I4819
sg1966
I1962
sg4964
I4960
sg2665
I2661
sg3175
I3171
sg2576
I2572
sg4721
I4717
sg4548
I4544
sg2699
I2695
sg4587
I4583
sg1371
I1367
sg142
I138
sg67
I63
sg4205
I4201
sg1671
I1667
sg4108
I4104
sg1637
I1633
sg1661
I1657
sg121
I117
sg1523
I1519
sg1795
I1791
sg1794
I1790
sg4272
I4268
sg428
I424
sg4264
I4260
sg2536
I2532
sg2196
I2192
sg2505
I2501
sg883
I879
sg1720
I1716
sg4289
I4285
sg2846
I2842
sg3904
I3900
sg1359
I1355
sg2165
I2161
sg4355
I4351
sg2661
I2657
sg1332
I1328
sg3196
I3192
sg3345
I3341
sg3956
I3952
sg1579
I1575
sg2832
I2828
sg3121
I3117
sg1135
I1131
sg4000
I3996
sg319
I315
sg4166
I4162
sg3151
I3147
sg1872
I1868
sg4800
I4796
sg1575
I1571
sg363
I359
sg4402
I4398
sg1556
I1552
sg4891
I4887
sg3655
I3651
sg2124
I2120
sg4210
I4206
sg759
I755
sg3775
I3771
sg2561
I2557
sg3511
I3507
sg2452
I2448
sg334
I330
sg1545
I1541
sg4755
I4751
sg2905
I2901
sg3612
I3608
sg3874
I3870
sg4348
I4344
sg3263
I3259
sg1273
I1269
sg3019
I3015
sg1241
I1237
sg2804
I2800
sg4973
I4969
sg1763
I1759
sg1188
I1184
sg2789
I2785
sg1350
I1346
sg647
I643
sg4010
I4006
sg3861
I3857
sg3112
I3108
sg3260
I3256
sg4706
I4702
sg892
I888
sg2874
I2870
sg3250
I3246
sg3420
I3416
sg2871
I2867
sg4319
I4315
sg2631
I2627
sg4648
I4644
sg4153
I4149
sg1143
I1139
sg1268
I1264
sg2462
I2458
sg4662
I4658
sg488
I484
sg4399
I4395
sg2606
I2602
sg3115
I3111
sg2018
I2014
sg592
I588
sg618
I614
sg4876
I4872
sg1895
I1891
sg964
I960
sg4778
I4774
sg971
I967
sg1522
I1518
sg1672
I1668
sg4064
I4060
sg3632
I3628
sg4415
I4411
sg2888
I2884
sg3551
I3547
sg3001
I2997
sg3656
I3652
sg3972
I3968
sg4422
I4418
sg3644
I3640
sg2588
I2584
sg575
I571
sg4522
I4518
sg1297
I1293
sg4066
I4062
sg3516
I3512
sg4051
I4047
sg3995
I3991
sg270
I266
sg4864
I4860
sg172
I168
sg2790
I2786
sg2074
I2070
sg941
I937
sg3011
I3007
sg2495
I2491
sg1676
I1672
sg1630
I1626
sg1992
I1988
sg3063
I3059
sg1384
I1380
sg1747
I1743
sg3023
I3019
sg3209
I3205
sg1114
I1110
sg3856
I3852
sg2062
I2058
sg4459
I4455
sg2227
I2223
sg3666
I3662
sg1502
I1498
sg1194
I1190
sg2663
I2659
sg2470
I2466
sg3075
I3071
sg3560
I3556
sg1828
I1824
sg4819
I4815
sg149
I145
sg2132
I2128
sg3448
I3444
sg4115
I4111
sg109
I105
sg547
I543
sg1256
I1252
sg4807
I4803
sg60
I56
sg2327
I2323
sg2914
I2910
sg1012
I1008
sg538
I534
sg2183
I2179
sg2251
I2247
sg2333
I2329
sg3637
I3633
sg3611
I3607
sg1907
I1903
sg4086
I4082
sg821
I817
sg3173
I3169
sg549
I545
sg1943
I1939
sg1331
I1327
sg2799
I2795
sg4934
I4930
sg3122
I3118
sg705
I701
sg678
I674
sg2279
I2275
sg810
I806
sg4304
I4300
sg174
I170
sg2086
I2082
sg1070
I1066
sg235
I231
sg2770
I2766
sg967
I963
sg4245
I4241
sg1089
I1085
sg533
I529
sg253
I249
sg2408
I2404
sg2824
I2820
sg4041
I4037
sg4394
I4390
sg2302
I2298
sg3933
I3929
sg1292
I1288
sg1692
I1688
sg1801
I1797
sg1693
I1689
sg3145
I3141
sg4005
I4001
sg1592
I1588
sg4170
I4166
sg1507
I1503
sg4125
I4121
sg3559
I3555
sg4095
I4091
sg4446
I4442
sg2640
I2636
sg4007
I4003
sg714
I710
sg2033
I2029
sg2817
I2813
sg3733
I3729
sg2476
I2472
sg615
I611
sg3472
I3468
sg2369
I2365
sg3335
I3331
sg4578
I4574
sg1758
I1754
sg1584
I1580
sg3767
I3763
sg1274
I1270
sg61
I57
sg1023
I1019
sg1603
I1599
sg2569
I2565
sg417
I413
sg1933
I1929
sg3941
I3937
sg4191
I4187
sg3571
I3567
sg4745
I4741
sg63
I59
sg787
I783
sg3737
I3733
sg1077
I1073
sg2241
I2237
sg450
I446
sg1932
I1928
sg2538
I2534
sg2146
I2142
sg300
I296
sg3674
I3670
sg1633
I1629
sg2290
I2286
sg1071
I1067
sg3742
I3738
sg76
I72
sg776
I772
sg1511
I1507
sg4482
I4478
sg2181
I2177
sg499
I495
sg4835
I4831
sg3725
I3721
sg2530
I2526
sg2603
I2599
sg4591
I4587
sg3653
I3649
sg2974
I2970
sg374
I370
sg3241
I3237
sg4505
I4501
sg4353
I4349
sg453
I449
sg829
I825
sg1227
I1223
sg3258
I3254
sg1079
I1075
sg4984
I4980
sg4756
I4752
sg1199
I1195
sg2983
I2979
sg2721
I2717
sg4401
I4397
sg4748
I4744
sg24
I20
sg940
I936
sg2143
I2139
sg4638
I4634
sg251
I247
sg2595
I2591
sg4681
I4677
sg4508
I4504
sg3897
I3893
sg3172
I3168
sg4909
I4905
sg4901
I4897
sg1101
I1097
sg4225
I4221
sg3948
I3944
sg838
I834
sg4555
I4551
sg2696
I2692
sg2130
I2126
sg3752
I3748
sg3646
I3642
sg2163
I2159
sg3095
I3091
sg2466
I2462
sg4509
I4505
sg4837
I4833
sg2849
I2845
sg1689
I1685
sg4806
I4802
sg3950
I3946
sg4600
I4596
sg4230
I4226
sg868
I864
sg3845
I3841
sg1470
I1466
sg3780
I3776
sg610
I606
sg4203
I4199
sg2324
I2320
sg822
I818
sg1547
I1543
sg1617
I1613
sg1887
I1883
sg836
I832
sg4510
I4506
sg1531
I1527
sg3410
I3406
sg208
I204
sg4480
I4476
sg3385
I3381
sg3609
I3605
sg3322
I3318
sg733
I729
sg446
I442
sg3938
I3934
sg2475
I2471
sg3262
I3258
sg2336
I2332
sg1149
I1145
sg3141
I3137
sg6
I2
sg3957
I3953
sg2993
I2989
sg4231
I4227
sg4461
I4457
sg719
I715
sg757
I753
sg1282
I1278
sg2560
I2556
sg3109
I3105
sg1541
I1537
sg3323
I3319
sg2456
I2452
sg1107
I1103
sg4799
I4795
sg1750
I1746
sg1449
I1445
sg546
I542
sg3288
I3284
sg293
I289
sg3475
I3471
sg2123
I2119
sg3310
I3306
sg3435
I3431
sg2453
I2449
sg525
I521
sg2617
I2613
sg3056
I3052
sg1946
I1942
sg3300
I3296
sg2531
I2527
sg1151
I1147
sg367
I363
sg526
I522
sg3729
I3725
sg686
I682
sg4445
I4441
sg4250
I4246
sg4262
I4258
sg1662
I1658
sg2239
I2235
sg179
I175
sg353
I349
sg2225
I2221
sg3259
I3255
sg335
I331
sg3958
I3954
sg4553
I4549
sg2562
I2558
sg2021
I2017
sg3419
I3415
sg212
I208
sg409
I405
sg4196
I4192
sg763
I759
sg963
I959
sg2664
I2660
sg804
I800
sg2187
I2183
sg2152
I2148
sg2981
I2977
sg873
I869
sg1919
I1915
sg2098
I2094
sg1911
I1907
sg1322
I1318
sg148
I144
sg4307
I4303
sg4442
I4438
sg630
I626
sg641
I637
sg3952
I3948
sg4384
I4380
sg365
I361
sg2559
I2555
sg645
I641
sg2978
I2974
sg4732
I4728
sg2916
I2912
sg4076
I4072
sg951
I947
sg3240
I3236
sg2749
I2745
sg739
I735
sg2786
I2782
sg4102
I4098
sg3953
I3949
sg1557
I1553
sg1909
I1905
sg3366
I3362
sg4511
I4507
sg4660
I4656
sg1018
I1014
sg1334
I1330
sg939
I935
sg4570
I4566
sg3441
I3437
sg721
I717
sg2215
I2211
sg4131
I4127
sg4861
I4857
sg1839
I1835
sg4849
I4845
sg1721
I1717
sg1665
I1661
sg4687
I4683
sg3544
I3540
sg3970
I3966
sg628
I624
sg4092
I4088
sg3119
I3115
sg735
I731
sg4229
I4225
sg3691
I3687
sg4625
I4621
sg2925
I2921
sg1186
I1182
sg4159
I4155
sg381
I377
sg2193
I2189
sg593
I589
sg687
I683
sg3291
I3287
sg4085
I4081
sg455
I451
sg3022
I3018
sg4950
I4946
sg4
I0
sg233
I229
sg2861
I2857
sg3613
I3609
sg3126
I3122
sg1355
I1351
sg3382
I3378
sg3593
I3589
sg3984
I3980
sg398
I394
sg2359
I2355
sg3954
I3950
sg3630
I3626
sg2625
I2621
sg444
I440
sg2581
I2577
sg3150
I3146
sg2135
I2131
sg4644
I4640
sg3751
I3747
sg1958
I1954
sg825
I821
sg2063
I2059
sg1264
I1260
sg561
I557
sg2494
I2490
sg4406
I4402
sg4476
I4472
sg3982
I3978
sg3645
I3641
sg2409
I2405
sg491
I487
sg1302
I1298
sg4604
I4600
sg2036
I2032
sg1097
I1093
sg3418
I3414
sg484
I480
sg853
I849
sg4325
I4321
sg4830
I4826
sg273
I269
sg4106
I4102
sg693
I689
sg1687
I1683
sg272
I268
sg2963
I2959
sg860
I856
sg4874
I4870
sg4421
I4417
sg607
I603
sg2979
I2975
sg2648
I2644
sg1923
I1919
sg4787
I4783
sg3961
I3957
sg4839
I4835
sg998
I994
sg1901
I1897
sg4795
I4791
sg4169
I4165
sg4701
I4697
sg1110
I1106
sg2706
I2702
sg288
I284
sg1673
I1669
sg1027
I1023
sg1729
I1725
sg3816
I3812
sg3801
I3797
sg4462
I4458
sg4126
I4122
sg4418
I4414
sg2568
I2564
sg4389
I4385
sg159
I155
sg3147
I3143
sg3159
I3155
sg4140
I4136
sg1211
I1207
sg2424
I2420
sg4215
I4211
sg3439
I3435
sg1105
I1101
sg3963
I3959
sg4672
I4668
sg3459
I3455
sg2695
I2691
sg2678
I2674
sg275
I271
sg1214
I1210
sg3598
I3594
sg742
I738
sg1796
I1792
sg894
I890
sg232
I228
sg4232
I4228
sg4916
I4912
sg2836
I2832
sg3599
I3595
sg3684
I3680
sg4082
I4078
sg1866
I1862
sg2819
I2815
sg4152
I4148
sg153
I149
sg4603
I4599
sg3994
I3990
sg3404
I3400
sg4513
I4509
sg4360
I4356
sg116
I112
sg3835
I3831
sg4928
I4924
sg1821
I1817
sg4056
I4052
sg245
I241
sg1263
I1259
sg3149
I3145
sg3910
I3906
sg2976
I2972
sg394
I390
sg2259
I2255
sg1177
I1173
sg4050
I4046
sg851
I847
sg1185
I1181
sg492
I488
sg4240
I4236
sg1635
I1631
sg2299
I2295
sg913
I909
sg4886
I4882
sg3493
I3489
sg1784
I1780
sg3346
I3342
sg424
I420
sg4968
I4964
sg3711
I3707
sg4149
I4145
sg1666
I1662
sg1718
I1714
sg1680
I1676
sg4857
I4853
sg3184
I3180
sg4001
I3997
sg130
I126
sg4742
I4738
sg4179
I4175
sg2583
I2579
sg338
I334
sg2413
I2409
sg4707
I4703
sg1918
I1914
sg3227
I3223
sg2726
I2722
sg1401
I1397
sg3408
I3404
sg2160
I2156
sg3446
I3442
sg495
I491
sg3139
I3135
sg3502
I3498
sg3639
I3635
sg4279
I4275
sg3162
I3158
sg4324
I4320
sg486
I482
sg243
I239
sg2356
I2352
sg2555
I2551
sg3027
I3023
sg2166
I2162
sg3424
I3420
sg2255
I2251
sg1809
I1805
sg977
I973
sg1038
I1034
sg1976
I1972
sg2526
I2522
sg1996
I1992
sg1253
I1249
sg425
I421
sg3086
I3082
sg2288
I2284
sg4632
I4628
sg2973
I2969
sg4536
I4532
sg3921
I3917
sg1505
I1501
sg2660
I2656
sg4068
I4064
sg2360
I2356
sg1576
I1572
sg4749
I4745
sg4223
I4219
sg2076
I2072
sg1622
I1618
sg1166
I1162
sg1789
I1785
sg286
I282
sg1519
I1515
sg2729
I2725
sg5
I1
sg4443
I4439
sg2937
I2933
sg1320
I1316
sg588
I584
sg2887
I2883
sg527
I523
sg1303
I1299
sg1280
I1276
sg1174
I1170
sg4824
I4820
sg496
I492
sg1753
I1749
sg2600
I2596
sg2363
I2359
sg2801
I2797
sg1761
I1757
sg3368
I3364
sg1698
I1694
sg3229
I3225
sg3769
I3765
sg1480
I1476
sg175
I171
sg3812
I3808
sg8
I4
sg3576
I3572
sg3343
I3339
sg1694
I1690
sg601
I597
sg4379
I4375
sg2854
I2850
sg1338
I1334
sg2295
I2291
sg843
I839
sg3529
I3525
sg3110
I3106
sg2750
I2746
sg4019
I4015
sg4710
I4706
sg4471
I4467
sg1050
I1046
sg970
I966
sg1016
I1012
sg3456
I3452
sg1792
I1788
sg752
I748
sg919
I915
sg4504
I4500
sg3832
I3828
sg936
I932
sg2381
I2377
sg1420
I1416
sg1285
I1281
sg151
I147
sg3912
I3908
sg2060
I2056
sg3432
I3428
sg1608
I1604
sg798
I794
sg426
I422
sg4538
I4534
sg1436
I1432
sg2867
I2863
sg3478
I3474
sg3776
I3772
sg4860
I4856
sg3700
I3696
sg2435
I2431
sg3264
I3260
sg3340
I3336
sg3051
I3047
sg1642
I1638
sg622
I618
sg3971
I3967
sg3425
I3421
sg132
I128
sg377
I373
sg1394
I1390
sg3449
I3445
sg3474
I3470
sg903
I899
sg3452
I3448
sg1602
I1598
sg4235
I4231
sg2761
I2757
sg4668
I4664
sg3091
I3087
sg3356
I3352
sg4869
I4865
sg986
I982
sg2704
I2700
sg696
I692
sg3522
I3518
sg3911
I3907
sg4900
I4896
sg3081
I3077
sg3043
I3039
sg3096
I3092
sg2522
I2518
sg1223
I1219
sg3324
I3320
sg1910
I1906
sg3671
I3667
sg1634
I1630
sg4770
I4766
sg3746
I3742
sg1405
I1401
sg4158
I4154
sg1235
I1231
sg3638
I3634
sg1024
I1020
sg4563
I4559
sg2370
I2366
sg2870
I2866
sg4929
I4925
sg2604
I2600
sg4182
I4178
sg3829
I3825
sg2934
I2930
sg3207
I3203
sg4267
I4263
sg1173
I1169
sg1315
I1311
sg2026
I2022
sg3935
I3931
sg2131
I2127
sg3979
I3975
sg4708
I4704
sg296
I292
sg1928
I1924
sg581
I577
sg322
I318
sg1999
I1995
sg669
I665
sg2657
I2653
sg3120
I3116
sg4326
I4322
sg4859
I4855
sg3774
I3770
sg3458
I3454
sg3195
I3191
sg3156
I3152
sg2301
I2297
sg2676
I2672
sg3275
I3271
sg1842
I1838
sg1283
I1279
sg4331
I4327
sg4089
I4085
sg814
I810
sg3167
I3163
sg4118
I4114
sg877
I873
sg1468
I1464
sg133
I129
sg1339
I1335
sg3072
I3068
sg3292
I3288
sg1971
I1967
sg1551
I1547
sg3402
I3398
sg1442
I1438
sg4363
I4359
sg2718
I2714
sg2517
I2513
sg4920
I4916
sg2460
I2456
sg3108
I3104
sg855
I851
sg35
I31
sg1594
I1590
sg4099
I4095
sg1536
I1532
sg897
I893
sg1799
I1795
sg2654
I2650
sg2168
I2164
sg4485
I4481
sg282
I278
sg4620
I4616
sg4905
I4901
sg4491
I4487
sg3772
I3768
sg4658
I4654
sg1238
I1234
sg4163
I4159
sg2508
I2504
sg1251
I1247
sg1740
I1736
sg1521
I1517
sg2318
I2314
sg3214
I3210
sg3306
I3302
sg389
I385
sg4609
I4605
sg3583
I3579
sg3640
I3636
sg1137
I1133
sg3965
I3961
sg717
I713
sg3199
I3195
sg4602
I4598
sg3823
I3819
sg3423
I3419
sg953
I949
sg307
I303
sg820
I816
sg1049
I1045
sg1847
I1843
sg3701
I3697
sg2535
I2531
sg2767
I2763
sg3444
I3440
sg3991
I3987
sg2114
I2110
sg3660
I3656
sg3758
I3754
sg2001
I1997
sg3937
I3933
sg2747
I2743
sg4321
I4317
sg872
I868
sg741
I737
sg2330
I2326
sg760
I756
sg2233
I2229
sg2532
I2528
sg4381
I4377
sg597
I593
sg4150
I4146
sg819
I815
sg481
I477
sg565
I561
sg1886
I1882
sg2159
I2155
sg1045
I1041
sg2823
I2819
sg4673
I4669
sg1882
I1878
sg433
I429
sg2450
I2446
sg3211
I3207
sg375
I371
sg1915
I1911
sg3070
I3066
sg4322
I4318
sg3974
I3970
sg4449
I4445
sg1422
I1418
sg551
I547
sg1782
I1778
sg4376
I4372
sg1068
I1064
sg1688
I1684
sg104
I100
sg120
I116
sg2970
I2966
sg1953
I1949
sg4107
I4103
sg922
I918
sg1826
I1822
sg1790
I1786
sg2567
I2563
sg558
I554
sg1047
I1043
sg477
I473
sg4440
I4436
sg1266
I1262
sg461
I457
sg4881
I4877
sg1353
I1349
sg1454
I1450
sg2738
I2734
sg4838
I4834
sg1658
I1654
sg2502
I2498
sg2525
I2521
sg1922
I1918
sg2013
I2009
sg1766
I1762
sg3627
I3623
sg4873
I4869
sg2752
I2748
sg3179
I3175
sg3106
I3102
sg250
I246
sg753
I749
sg2198
I2194
sg2034
I2030
sg4831
I4827
sg2313
I2309
sg3347
I3343
sg1328
I1324
sg716
I712
sg2967
I2963
sg2261
I2257
sg713
I709
sg2859
I2855
sg504
I500
sg4258
I4254
sg3130
I3126
sg2956
I2952
sg2477
I2473
sg914
I910
sg583
I579
sg205
I201
sg2578
I2574
sg1652
I1648
sg2282
I2278
sg3270
I3266
sg2172
I2168
sg3201
I3197
sg1222
I1218
sg2240
I2236
sg568
I564
sg1247
I1243
sg3350
I3346
sg4466
I4462
sg4723
I4719
sg2571
I2567
sg3376
I3372
sg1428
I1424
sg1649
I1645
sg730
I726
sg756
I752
sg1601
I1597
sg1333
I1329
sg1947
I1943
sg768
I764
sg3698
I3694
sg489
I485
sg807
I803
sg788
I784
sg378
I374
sg4783
I4779
sg2352
I2348
sg3000
I2996
sg2205
I2201
sg3791
I3787
sg4211
I4207
sg515
I511
sg3923
I3919
sg874
I870
sg1989
I1985
sg2772
I2768
sg1920
I1916
sg4478
I4474
sg1440
I1436
sg4496
I4492
sg2579
I2575
sg3917
I3913
sg1352
I1348
sg3744
I3740
sg1181
I1177
sg1945
I1941
sg2941
I2937
sg1627
I1623
sg3392
I3388
sg2755
I2751
sg4631
I4627
sg3939
I3935
sg255
I251
sg4497
I4493
sg4202
I4198
sg3294
I3290
sg107
I103
sg1473
I1469
sg4855
I4851
sg4743
I4739
sg4741
I4737
sg844
I840
sg126
I122
sg1876
I1872
sg1571
I1567
sg4987
I4983
sg2869
I2865
sg2393
I2389
sg1685
I1681
sg3371
I3367
sg115
I111
sg3080
I3076
sg1623
I1619
sg48
I44
sg168
I164
sg2277
I2273
sg4599
I4595
sg530
I526
sg3253
I3249
sg138
I134
sg1004
I1000
sg2217
I2213
sg3860
I3856
sg2306
I2302
sg3759
I3755
sg2598
I2594
sg4238
I4234
sg4700
I4696
sg2211
I2207
sg1754
I1750
sg1329
I1325
sg1852
I1848
sg2061
I2057
sg3514
I3510
sg2319
I2315
sg2618
I2614
sg1236
I1232
sg4291
I4287
sg4012
I4008
sg1195
I1191
sg3352
I3348
sg4487
I4483
sg4739
I4735
sg554
I550
sg893
I889
sg2309
I2305
sg746
I742
sg2113
I2109
sg1759
I1755
sg1632
I1628
sg2434
I2430
sg614
I610
sg2848
I2844
sg2652
I2648
sg4346
I4342
sg3868
I3864
sg3615
I3611
sg1850
I1846
sg3786
I3782
sg709
I705
sg978
I974
sg2284
I2280
sg1714
I1710
sg2622
I2618
sg1031
I1027
sg2149
I2145
sg2763
I2759
sg634
I630
sg2573
I2569
sg1978
I1974
sg4472
I4468
sg2162
I2158
sg2213
I2209
sg4425
I4421
sg2966
I2962
sg3252
I3248
sg3286
I3282
sg4798
I4794
sg1908
I1904
sg1837
I1833
sg3100
I3096
sg2125
I2121
sg1435
I1431
sg4584
I4580
sg333
I329
sg2656
I2652
sg4029
I4025
sg320
I316
sg4740
I4736
sg1997
I1993
sg3331
I3327
sg1025
I1021
sg2778
I2774
sg1021
I1017
sg4821
I4817
sg226
I222
sg1150
I1146
sg676
I672
sg3348
I3344
sg230
I226
sg4207
I4203
sg285
I281
sg3699
I3695
sg856
I852
sg4547
I4543
sg162
I158
sg3344
I3340
sg644
I640
sg259
I255
sg4174
I4170
sg3281
I3277
sg1936
I1932
sg1281
I1277
sg854
I850
sg3838
I3834
sg2338
I2334
sg1006
I1002
sg3181
I3177
sg1196
I1192
sg2339
I2335
sg4411
I4407
sg2828
I2824
sg3864
I3860
sg4305
I4301
sg327
I323
sg1202
I1198
sg3266
I3262
sg79
I75
sg1290
I1286
sg4594
I4590
sg3517
I3513
sg3136
I3132
sg1980
I1976
sg2638
I2634
sg3882
I3878
sg4686
I4682
sg2298
I2294
sg2865
I2861
sg4117
I4113
sg2331
I2327
sg3507
I3503
sg332
I328
sg1060
I1056
sg3704
I3700
sg1834
I1830
sg3490
I3486
sg1246
I1242
sg3409
I3405
sg972
I968
sg1207
I1203
sg4820
I4816
sg1142
I1138
sg1864
I1860
sg1091
I1087
sg4465
I4461
sg3827
I3823
sg3426
I3422
sg3400
I3396
sg2072
I2068
sg410
I406
sg2349
I2345
sg1696
I1692
sg4038
I4034
sg3658
I3654
sg1463
I1459
sg4047
I4043
sg4726
I4722
sg3554
I3550
sg1189
I1185
sg2497
I2493
sg1221
I1217
sg1831
I1827
sg2316
I2312
sg3811
I3807
sg3098
I3094
sg4470
I4466
sg4276
I4272
sg2759
I2755
sg901
I897
sg885
I881
sg1042
I1038
sg4924
I4920
sg1358
I1354
sg1182
I1178
sg3534
I3530
sg3220
I3216
sg4444
I4440
sg1774
I1770
ssb.